
main.elf:     file format elf32-littleriscv


Disassembly of section .text:

00000000 <_isr_handler>:
       0:	0080006f          	j	8 <_isr_routine>
       4:	1440006f          	j	148 <_start>

00000008 <_isr_routine>:
       8:	f8010113          	addi	sp,sp,-128
       c:	00112023          	sw	ra,0(sp)
      10:	00312423          	sw	gp,8(sp)
      14:	00412623          	sw	tp,12(sp)
      18:	00512823          	sw	t0,16(sp)
      1c:	00612a23          	sw	t1,20(sp)
      20:	00712c23          	sw	t2,24(sp)
      24:	00812e23          	sw	s0,28(sp)
      28:	02912023          	sw	s1,32(sp)
      2c:	02a12223          	sw	a0,36(sp)
      30:	02b12423          	sw	a1,40(sp)
      34:	02c12623          	sw	a2,44(sp)
      38:	02d12823          	sw	a3,48(sp)
      3c:	02e12a23          	sw	a4,52(sp)
      40:	02f12c23          	sw	a5,56(sp)
      44:	03012e23          	sw	a6,60(sp)
      48:	05112023          	sw	a7,64(sp)
      4c:	05212223          	sw	s2,68(sp)
      50:	05312423          	sw	s3,72(sp)
      54:	05412623          	sw	s4,76(sp)
      58:	05512823          	sw	s5,80(sp)
      5c:	05612a23          	sw	s6,84(sp)
      60:	05712c23          	sw	s7,88(sp)
      64:	05812e23          	sw	s8,92(sp)
      68:	07912023          	sw	s9,96(sp)
      6c:	07a12223          	sw	s10,100(sp)
      70:	07b12423          	sw	s11,104(sp)
      74:	07c12623          	sw	t3,108(sp)
      78:	07d12823          	sw	t4,112(sp)
      7c:	07e12a23          	sw	t5,116(sp)
      80:	07f12c23          	sw	t6,120(sp)
      84:	342022f3          	csrr	t0,mcause
      88:	80000337          	lui	t1,0x80000
      8c:	02536463          	bltu	t1,t0,b4 <external_irq>
      90:	00028833          	add	a6,t0,zero
      94:	00b00313          	li	t1,11
      98:	00628463          	beq	t0,t1,a0 <skip_init_args>
      9c:	34102573          	csrr	a0,mepc

000000a0 <skip_init_args>:
      a0:	171010ef          	jal	1a10 <handle_exception>
      a4:	341022f3          	csrr	t0,mepc
      a8:	00428293          	addi	t0,t0,4
      ac:	34129073          	csrw	mepc,t0
      b0:	0180006f          	j	c8 <restore>

000000b4 <external_irq>:
      b4:	800002b7          	lui	t0,0x80000
      b8:	fff28293          	addi	t0,t0,-1 # 7fffffff <_stack_end+0x7fefde7f>
      bc:	34202373          	csrr	t1,mcause
      c0:	0062f533          	and	a0,t0,t1
      c4:	0ac000ef          	jal	170 <handle_interrupt>

000000c8 <restore>:
      c8:	00012083          	lw	ra,0(sp)
      cc:	00812183          	lw	gp,8(sp)
      d0:	00c12203          	lw	tp,12(sp)
      d4:	01012283          	lw	t0,16(sp)
      d8:	01412303          	lw	t1,20(sp)
      dc:	01812383          	lw	t2,24(sp)
      e0:	01c12403          	lw	s0,28(sp)
      e4:	02012483          	lw	s1,32(sp)
      e8:	02412503          	lw	a0,36(sp)
      ec:	02812583          	lw	a1,40(sp)
      f0:	02c12603          	lw	a2,44(sp)
      f4:	03012683          	lw	a3,48(sp)
      f8:	03412703          	lw	a4,52(sp)
      fc:	03812783          	lw	a5,56(sp)
     100:	03c12803          	lw	a6,60(sp)
     104:	04012883          	lw	a7,64(sp)
     108:	04412903          	lw	s2,68(sp)
     10c:	04812983          	lw	s3,72(sp)
     110:	04c12a03          	lw	s4,76(sp)
     114:	05012a83          	lw	s5,80(sp)
     118:	05412b03          	lw	s6,84(sp)
     11c:	05812b83          	lw	s7,88(sp)
     120:	05c12c03          	lw	s8,92(sp)
     124:	06012c83          	lw	s9,96(sp)
     128:	06412d03          	lw	s10,100(sp)
     12c:	06812d83          	lw	s11,104(sp)
     130:	06c12e03          	lw	t3,108(sp)
     134:	07012e83          	lw	t4,112(sp)
     138:	07412f03          	lw	t5,116(sp)
     13c:	07812f83          	lw	t6,120(sp)
     140:	08010113          	addi	sp,sp,128
     144:	30200073          	mret

00000148 <_start>:
     148:	00102117          	auipc	sp,0x102
     14c:	03810113          	addi	sp,sp,56 # 102180 <_stack_end>
     150:	00002197          	auipc	gp,0x2
     154:	72c18193          	addi	gp,gp,1836 # 287c <__global_pointer>
     158:	00002517          	auipc	a0,0x2
     15c:	e9050513          	addi	a0,a0,-368 # 1fe8 <welcome_msg>
     160:	00400893          	li	a7,4
     164:	00000073          	ecall
     168:	290000ef          	jal	3f8 <main>

0000016c <loop>:
     16c:	0000006f          	j	16c <loop>

00000170 <handle_interrupt>:
     170:	00008067          	ret

00000174 <reset_screen>:
     174:	000136b7          	lui	a3,0x13
     178:	00000793          	li	a5,0
     17c:	00002637          	lui	a2,0x2
     180:	c0068693          	addi	a3,a3,-1024 # 12c00 <__global_pointer+0x10384>
     184:	08062703          	lw	a4,128(a2) # 2080 <VGA>
     188:	00f70733          	add	a4,a4,a5
     18c:	00070023          	sb	zero,0(a4)
     190:	00178793          	addi	a5,a5,1
     194:	fed798e3          	bne	a5,a3,184 <reset_screen+0x10>
     198:	00008067          	ret

0000019c <draw_ball>:
     19c:	00002eb7          	lui	t4,0x2
     1a0:	084ea583          	lw	a1,132(t4) # 2084 <ball_size>
     1a4:	00000893          	li	a7,0
     1a8:	00002537          	lui	a0,0x2
     1ac:	06b05263          	blez	a1,210 <draw_ball+0x74>
     1b0:	13f00813          	li	a6,319
     1b4:	00002e37          	lui	t3,0x2
     1b8:	0ef00313          	li	t1,239
     1bc:	00002fb7          	lui	t6,0x2
     1c0:	fff00f13          	li	t5,-1
     1c4:	00000713          	li	a4,0
     1c8:	09052783          	lw	a5,144(a0) # 2090 <ball_x>
     1cc:	00f707b3          	add	a5,a4,a5
     1d0:	00170713          	addi	a4,a4,1
     1d4:	02f86863          	bltu	a6,a5,204 <draw_ball+0x68>
     1d8:	08ce2603          	lw	a2,140(t3) # 208c <ball_y>
     1dc:	00c88633          	add	a2,a7,a2
     1e0:	00261693          	slli	a3,a2,0x2
     1e4:	00c686b3          	add	a3,a3,a2
     1e8:	00669693          	slli	a3,a3,0x6
     1ec:	00f686b3          	add	a3,a3,a5
     1f0:	00c36a63          	bltu	t1,a2,204 <draw_ball+0x68>
     1f4:	080fa783          	lw	a5,128(t6) # 2080 <VGA>
     1f8:	00d787b3          	add	a5,a5,a3
     1fc:	01e78023          	sb	t5,0(a5)
     200:	084ea583          	lw	a1,132(t4)
     204:	fcb742e3          	blt	a4,a1,1c8 <draw_ball+0x2c>
     208:	00188893          	addi	a7,a7,1
     20c:	fab8cce3          	blt	a7,a1,1c4 <draw_ball+0x28>
     210:	00008067          	ret

00000214 <draw_paddle1>:
     214:	00002337          	lui	t1,0x2
     218:	08832603          	lw	a2,136(t1) # 2088 <paddle_height>
     21c:	00000513          	li	a0,0
     220:	000028b7          	lui	a7,0x2
     224:	06c05463          	blez	a2,28c <draw_paddle1+0x78>
     228:	0ef00813          	li	a6,239
     22c:	00002f37          	lui	t5,0x2
     230:	fff00e93          	li	t4,-1
     234:	01900e13          	li	t3,25
     238:	00000693          	li	a3,0
     23c:	0988a783          	lw	a5,152(a7) # 2098 <player1_y>
     240:	01f65713          	srli	a4,a2,0x1f
     244:	00c70733          	add	a4,a4,a2
     248:	40175713          	srai	a4,a4,0x1
     24c:	40e787b3          	sub	a5,a5,a4
     250:	00a787b3          	add	a5,a5,a0
     254:	00279713          	slli	a4,a5,0x2
     258:	00f70733          	add	a4,a4,a5
     25c:	00868593          	addi	a1,a3,8
     260:	00671713          	slli	a4,a4,0x6
     264:	00b70733          	add	a4,a4,a1
     268:	00168693          	addi	a3,a3,1
     26c:	00f86c63          	bltu	a6,a5,284 <draw_paddle1+0x70>
     270:	080f2783          	lw	a5,128(t5) # 2080 <VGA>
     274:	00e787b3          	add	a5,a5,a4
     278:	01d78023          	sb	t4,0(a5)
     27c:	08832603          	lw	a2,136(t1)
     280:	fbc69ee3          	bne	a3,t3,23c <draw_paddle1+0x28>
     284:	00150513          	addi	a0,a0,1
     288:	fac548e3          	blt	a0,a2,238 <draw_paddle1+0x24>
     28c:	00008067          	ret

00000290 <draw_paddle2>:
     290:	000028b7          	lui	a7,0x2
     294:	0888a683          	lw	a3,136(a7) # 2088 <paddle_height>
     298:	00000593          	li	a1,0
     29c:	00002837          	lui	a6,0x2
     2a0:	06d05263          	blez	a3,304 <draw_paddle2+0x74>
     2a4:	0ef00513          	li	a0,239
     2a8:	00002eb7          	lui	t4,0x2
     2ac:	fff00e13          	li	t3,-1
     2b0:	14000313          	li	t1,320
     2b4:	12700613          	li	a2,295
     2b8:	09482703          	lw	a4,148(a6) # 2094 <player2_y>
     2bc:	01f6d793          	srli	a5,a3,0x1f
     2c0:	00d787b3          	add	a5,a5,a3
     2c4:	4017d793          	srai	a5,a5,0x1
     2c8:	00e787b3          	add	a5,a5,a4
     2cc:	00b787b3          	add	a5,a5,a1
     2d0:	00279713          	slli	a4,a5,0x2
     2d4:	00f70733          	add	a4,a4,a5
     2d8:	00671713          	slli	a4,a4,0x6
     2dc:	00870713          	addi	a4,a4,8
     2e0:	00160613          	addi	a2,a2,1
     2e4:	00f56c63          	bltu	a0,a5,2fc <draw_paddle2+0x6c>
     2e8:	080ea783          	lw	a5,128(t4) # 2080 <VGA>
     2ec:	00e787b3          	add	a5,a5,a4
     2f0:	01c78023          	sb	t3,0(a5)
     2f4:	0888a683          	lw	a3,136(a7)
     2f8:	fc6610e3          	bne	a2,t1,2b8 <draw_paddle2+0x28>
     2fc:	00158593          	addi	a1,a1,1
     300:	fad5cae3          	blt	a1,a3,2b4 <draw_paddle2+0x24>
     304:	00008067          	ret

00000308 <update_timer>:
     308:	00002737          	lui	a4,0x2
     30c:	09c72783          	lw	a5,156(a4) # 209c <five_seconds>
     310:	000026b7          	lui	a3,0x2
     314:	0ac6a683          	lw	a3,172(a3) # 20ac <fast_ball>
     318:	ff010113          	addi	sp,sp,-16
     31c:	00178793          	addi	a5,a5,1
     320:	00112623          	sw	ra,12(sp)
     324:	00812423          	sw	s0,8(sp)
     328:	00912223          	sw	s1,4(sp)
     32c:	08f72e23          	sw	a5,156(a4)
     330:	00068663          	beqz	a3,33c <update_timer+0x34>
     334:	00400693          	li	a3,4
     338:	08f6cc63          	blt	a3,a5,3d0 <update_timer+0xc8>
     33c:	00002437          	lui	s0,0x2
     340:	0a842783          	lw	a5,168(s0) # 20a8 <seconds>
     344:	00002737          	lui	a4,0x2
     348:	0a072023          	sw	zero,160(a4) # 20a0 <timeoutCount>
     34c:	03a00713          	li	a4,58
     350:	06f75663          	bge	a4,a5,3bc <update_timer+0xb4>
     354:	000024b7          	lui	s1,0x2
     358:	0a44a703          	lw	a4,164(s1) # 20a4 <minutes>
     35c:	00000593          	li	a1,0
     360:	00000793          	li	a5,0
     364:	00170713          	addi	a4,a4,1
     368:	0ae4a223          	sw	a4,164(s1)
     36c:	00200513          	li	a0,2
     370:	0af42423          	sw	a5,168(s0)
     374:	2dc000ef          	jal	650 <seven_segment_display>
     378:	0a842583          	lw	a1,168(s0)
     37c:	00a00413          	li	s0,10
     380:	00300513          	li	a0,3
     384:	0285c5b3          	div	a1,a1,s0
     388:	2c8000ef          	jal	650 <seven_segment_display>
     38c:	0a44a583          	lw	a1,164(s1)
     390:	00400513          	li	a0,4
     394:	0285e5b3          	rem	a1,a1,s0
     398:	2b8000ef          	jal	650 <seven_segment_display>
     39c:	0a44a583          	lw	a1,164(s1)
     3a0:	00c12083          	lw	ra,12(sp)
     3a4:	00412483          	lw	s1,4(sp)
     3a8:	0285c5b3          	div	a1,a1,s0
     3ac:	00812403          	lw	s0,8(sp)
     3b0:	00500513          	li	a0,5
     3b4:	01010113          	addi	sp,sp,16
     3b8:	2980006f          	j	650 <seven_segment_display>
     3bc:	00178793          	addi	a5,a5,1
     3c0:	00a00593          	li	a1,10
     3c4:	02b7e5b3          	rem	a1,a5,a1
     3c8:	000024b7          	lui	s1,0x2
     3cc:	fa1ff06f          	j	36c <update_timer+0x64>
     3d0:	000025b7          	lui	a1,0x2
     3d4:	00002637          	lui	a2,0x2
     3d8:	0c85a683          	lw	a3,200(a1) # 20c8 <ball_dx>
     3dc:	0c462783          	lw	a5,196(a2) # 20c4 <ball_dy>
     3e0:	08072e23          	sw	zero,156(a4)
     3e4:	00168713          	addi	a4,a3,1
     3e8:	00178793          	addi	a5,a5,1
     3ec:	0ce5a423          	sw	a4,200(a1)
     3f0:	0cf62223          	sw	a5,196(a2)
     3f4:	f49ff06f          	j	33c <update_timer+0x34>

000003f8 <main>:
     3f8:	fb010113          	addi	sp,sp,-80
     3fc:	04812423          	sw	s0,72(sp)
     400:	04912223          	sw	s1,68(sp)
     404:	05212023          	sw	s2,64(sp)
     408:	03312e23          	sw	s3,60(sp)
     40c:	03412c23          	sw	s4,56(sp)
     410:	03512a23          	sw	s5,52(sp)
     414:	03612823          	sw	s6,48(sp)
     418:	03712623          	sw	s7,44(sp)
     41c:	03812423          	sw	s8,40(sp)
     420:	03912223          	sw	s9,36(sp)
     424:	03a12023          	sw	s10,32(sp)
     428:	01b12e23          	sw	s11,28(sp)
     42c:	04112623          	sw	ra,76(sp)
     430:	320000ef          	jal	750 <initialize_game>
     434:	040007b7          	lui	a5,0x4000
     438:	00013ab7          	lui	s5,0x13
     43c:	02078793          	addi	a5,a5,32 # 4000020 <_stack_end+0x3efdea0>
     440:	000024b7          	lui	s1,0x2
     444:	00002c37          	lui	s8,0x2
     448:	00002437          	lui	s0,0x2
     44c:	00002d37          	lui	s10,0x2
     450:	00002a37          	lui	s4,0x2
     454:	00002937          	lui	s2,0x2
     458:	00002b37          	lui	s6,0x2
     45c:	00002db7          	lui	s11,0x2
     460:	000029b7          	lui	s3,0x2
     464:	00f12623          	sw	a5,12(sp)
     468:	c00a8a93          	addi	s5,s5,-1024 # 12c00 <__global_pointer+0x10384>
     46c:	0ef00b93          	li	s7,239
     470:	fff00c93          	li	s9,-1
     474:	324010ef          	jal	1798 <get_btn>
     478:	1c051463          	bnez	a0,640 <main+0x248>
     47c:	0b84a783          	lw	a5,184(s1) # 20b8 <game_state>
     480:	1a078463          	beqz	a5,628 <main+0x230>
     484:	00c12683          	lw	a3,12(sp)
     488:	0006a783          	lw	a5,0(a3)
     48c:	0017f793          	andi	a5,a5,1
     490:	18078c63          	beqz	a5,628 <main+0x230>
     494:	00002637          	lui	a2,0x2
     498:	0a062783          	lw	a5,160(a2) # 20a0 <timeoutCount>
     49c:	00a00713          	li	a4,10
     4a0:	00178793          	addi	a5,a5,1
     4a4:	0af62023          	sw	a5,160(a2)
     4a8:	0006a783          	lw	a5,0(a3)
     4ac:	ffe7f793          	andi	a5,a5,-2
     4b0:	00f6a023          	sw	a5,0(a3)
     4b4:	0a062783          	lw	a5,160(a2)
     4b8:	18e78863          	beq	a5,a4,648 <main+0x250>
     4bc:	378010ef          	jal	1834 <set_special_game_modes>
     4c0:	2f0010ef          	jal	17b0 <set_paddles_velocity>
     4c4:	591000ef          	jal	1254 <move_ball>
     4c8:	140010ef          	jal	1608 <move_paddles>
     4cc:	00000793          	li	a5,0
     4d0:	080c2703          	lw	a4,128(s8) # 2080 <VGA>
     4d4:	00f70733          	add	a4,a4,a5
     4d8:	00070023          	sb	zero,0(a4)
     4dc:	00178793          	addi	a5,a5,1
     4e0:	ff5798e3          	bne	a5,s5,4d0 <main+0xd8>
     4e4:	08442303          	lw	t1,132(s0) # 2084 <ball_size>
     4e8:	00000e93          	li	t4,0
     4ec:	13f00e13          	li	t3,319
     4f0:	04605863          	blez	t1,540 <main+0x148>
     4f4:	00000713          	li	a4,0
     4f8:	090a2783          	lw	a5,144(s4) # 2090 <ball_x>
     4fc:	00f707b3          	add	a5,a4,a5
     500:	00170713          	addi	a4,a4,1
     504:	02fe6863          	bltu	t3,a5,534 <main+0x13c>
     508:	08c92883          	lw	a7,140(s2) # 208c <ball_y>
     50c:	011e88b3          	add	a7,t4,a7
     510:	00289513          	slli	a0,a7,0x2
     514:	01150533          	add	a0,a0,a7
     518:	00651513          	slli	a0,a0,0x6
     51c:	00f50533          	add	a0,a0,a5
     520:	011bea63          	bltu	s7,a7,534 <main+0x13c>
     524:	080c2783          	lw	a5,128(s8)
     528:	00a787b3          	add	a5,a5,a0
     52c:	01978023          	sb	s9,0(a5)
     530:	08442303          	lw	t1,132(s0)
     534:	fc6742e3          	blt	a4,t1,4f8 <main+0x100>
     538:	001e8e93          	addi	t4,t4,1
     53c:	fa6ecce3          	blt	t4,t1,4f4 <main+0xfc>
     540:	088d2503          	lw	a0,136(s10) # 2088 <paddle_height>
     544:	00000e13          	li	t3,0
     548:	01900e93          	li	t4,25
     54c:	0aa05a63          	blez	a0,600 <main+0x208>
     550:	00000893          	li	a7,0
     554:	098b2783          	lw	a5,152(s6) # 2098 <player1_y>
     558:	01f55713          	srli	a4,a0,0x1f
     55c:	00a70733          	add	a4,a4,a0
     560:	40175713          	srai	a4,a4,0x1
     564:	40e787b3          	sub	a5,a5,a4
     568:	01c787b3          	add	a5,a5,t3
     56c:	00279713          	slli	a4,a5,0x2
     570:	00f70733          	add	a4,a4,a5
     574:	00888313          	addi	t1,a7,8
     578:	00671713          	slli	a4,a4,0x6
     57c:	00e30333          	add	t1,t1,a4
     580:	00188893          	addi	a7,a7,1
     584:	00fbec63          	bltu	s7,a5,59c <main+0x1a4>
     588:	080c2783          	lw	a5,128(s8)
     58c:	006787b3          	add	a5,a5,t1
     590:	01978023          	sb	s9,0(a5)
     594:	088d2503          	lw	a0,136(s10)
     598:	fbd89ee3          	bne	a7,t4,554 <main+0x15c>
     59c:	001e0e13          	addi	t3,t3,1
     5a0:	faae48e3          	blt	t3,a0,550 <main+0x158>
     5a4:	00000313          	li	t1,0
     5a8:	14000e13          	li	t3,320
     5ac:	04a05a63          	blez	a0,600 <main+0x208>
     5b0:	12700893          	li	a7,295
     5b4:	094da703          	lw	a4,148(s11) # 2094 <player2_y>
     5b8:	01f55793          	srli	a5,a0,0x1f
     5bc:	00a787b3          	add	a5,a5,a0
     5c0:	4017d793          	srai	a5,a5,0x1
     5c4:	00e787b3          	add	a5,a5,a4
     5c8:	006787b3          	add	a5,a5,t1
     5cc:	00279713          	slli	a4,a5,0x2
     5d0:	00f70733          	add	a4,a4,a5
     5d4:	00671713          	slli	a4,a4,0x6
     5d8:	00870713          	addi	a4,a4,8
     5dc:	00188893          	addi	a7,a7,1
     5e0:	00fbec63          	bltu	s7,a5,5f8 <main+0x200>
     5e4:	080c2783          	lw	a5,128(s8)
     5e8:	00e787b3          	add	a5,a5,a4
     5ec:	01978023          	sb	s9,0(a5)
     5f0:	088d2503          	lw	a0,136(s10)
     5f4:	fdc890e3          	bne	a7,t3,5b4 <main+0x1bc>
     5f8:	00130313          	addi	t1,t1,1
     5fc:	faa34ae3          	blt	t1,a0,5b0 <main+0x1b8>
     600:	000027b7          	lui	a5,0x2
     604:	0c07a703          	lw	a4,192(a5) # 20c0 <player1_score>
     608:	00400793          	li	a5,4
     60c:	00e7d463          	bge	a5,a4,614 <main+0x21c>
     610:	0a04ac23          	sw	zero,184(s1)
     614:	000027b7          	lui	a5,0x2
     618:	0bc7a703          	lw	a4,188(a5) # 20bc <player2_score>
     61c:	00400793          	li	a5,4
     620:	00e7d463          	bge	a5,a4,628 <main+0x230>
     624:	0a04ac23          	sw	zero,184(s1)
     628:	07c9a783          	lw	a5,124(s3) # 207c <VGA_CTRL>
     62c:	080c2703          	lw	a4,128(s8)
     630:	00e7a223          	sw	a4,4(a5)
     634:	0007a023          	sw	zero,0(a5)
     638:	160010ef          	jal	1798 <get_btn>
     63c:	e40500e3          	beqz	a0,47c <main+0x84>
     640:	110000ef          	jal	750 <initialize_game>
     644:	e39ff06f          	j	47c <main+0x84>
     648:	cc1ff0ef          	jal	308 <update_timer>
     64c:	e71ff06f          	j	4bc <main+0xc4>

00000650 <seven_segment_display>:
     650:	00500793          	li	a5,5
     654:	04a7e263          	bltu	a5,a0,698 <seven_segment_display+0x48>
     658:	04000737          	lui	a4,0x4000
     65c:	00451513          	slli	a0,a0,0x4
     660:	05070713          	addi	a4,a4,80 # 4000050 <_stack_end+0x3efded0>
     664:	00e50533          	add	a0,a0,a4
     668:	02059a63          	bnez	a1,69c <seven_segment_display+0x4c>
     66c:	04000793          	li	a5,64
     670:	00f52023          	sw	a5,0(a0)
     674:	00008067          	ret
     678:	00700793          	li	a5,7
     67c:	08f58c63          	beq	a1,a5,714 <seven_segment_display+0xc4>
     680:	00800793          	li	a5,8
     684:	08f58463          	beq	a1,a5,70c <seven_segment_display+0xbc>
     688:	00900793          	li	a5,9
     68c:	00f59663          	bne	a1,a5,698 <seven_segment_display+0x48>
     690:	01000793          	li	a5,16
     694:	00f52023          	sw	a5,0(a0)
     698:	00008067          	ret
     69c:	00100713          	li	a4,1
     6a0:	00e58c63          	beq	a1,a4,6b8 <seven_segment_display+0x68>
     6a4:	00200713          	li	a4,2
     6a8:	00e59e63          	bne	a1,a4,6c4 <seven_segment_display+0x74>
     6ac:	02400793          	li	a5,36
     6b0:	00f52023          	sw	a5,0(a0)
     6b4:	00008067          	ret
     6b8:	07900793          	li	a5,121
     6bc:	00f52023          	sw	a5,0(a0)
     6c0:	00008067          	ret
     6c4:	00300693          	li	a3,3
     6c8:	00d59863          	bne	a1,a3,6d8 <seven_segment_display+0x88>
     6cc:	03000793          	li	a5,48
     6d0:	00f52023          	sw	a5,0(a0)
     6d4:	00008067          	ret
     6d8:	00400693          	li	a3,4
     6dc:	00d58c63          	beq	a1,a3,6f4 <seven_segment_display+0xa4>
     6e0:	02f58063          	beq	a1,a5,700 <seven_segment_display+0xb0>
     6e4:	00600793          	li	a5,6
     6e8:	f8f598e3          	bne	a1,a5,678 <seven_segment_display+0x28>
     6ec:	00e52023          	sw	a4,0(a0)
     6f0:	00008067          	ret
     6f4:	01900793          	li	a5,25
     6f8:	00f52023          	sw	a5,0(a0)
     6fc:	00008067          	ret
     700:	01200793          	li	a5,18
     704:	00f52023          	sw	a5,0(a0)
     708:	00008067          	ret
     70c:	00052023          	sw	zero,0(a0)
     710:	00008067          	ret
     714:	07800793          	li	a5,120
     718:	00f52023          	sw	a5,0(a0)
     71c:	00008067          	ret

00000720 <initialize_game_time>:
     720:	0000c6b7          	lui	a3,0xc
     724:	040007b7          	lui	a5,0x4000
     728:	6bf68693          	addi	a3,a3,1727 # c6bf <__global_pointer+0x9e43>
     72c:	02d7a423          	sw	a3,40(a5) # 4000028 <_stack_end+0x3efdea8>
     730:	04000737          	lui	a4,0x4000
     734:	02d00693          	li	a3,45
     738:	040007b7          	lui	a5,0x4000
     73c:	02d72623          	sw	a3,44(a4) # 400002c <_stack_end+0x3efdeac>
     740:	0247a703          	lw	a4,36(a5) # 4000024 <_stack_end+0x3efdea4>
     744:	00776713          	ori	a4,a4,7
     748:	02e7a223          	sw	a4,36(a5)
     74c:	00008067          	ret

00000750 <initialize_game>:
     750:	00002737          	lui	a4,0x2
     754:	0c072623          	sw	zero,204(a4) # 20cc <player2_dy>
     758:	00002737          	lui	a4,0x2
     75c:	0c072823          	sw	zero,208(a4) # 20d0 <player1_dy>
     760:	ffd00613          	li	a2,-3
     764:	00002737          	lui	a4,0x2
     768:	0cc72423          	sw	a2,200(a4) # 20c8 <ball_dx>
     76c:	00002737          	lui	a4,0x2
     770:	0c072223          	sw	zero,196(a4) # 20c4 <ball_dy>
     774:	07800793          	li	a5,120
     778:	00002737          	lui	a4,0x2
     77c:	08f72a23          	sw	a5,148(a4) # 2094 <player2_y>
     780:	00002737          	lui	a4,0x2
     784:	08f72c23          	sw	a5,152(a4) # 2098 <player1_y>
     788:	0a000613          	li	a2,160
     78c:	00002737          	lui	a4,0x2
     790:	08c72823          	sw	a2,144(a4) # 2090 <ball_x>
     794:	00002737          	lui	a4,0x2
     798:	08f72623          	sw	a5,140(a4) # 208c <ball_y>
     79c:	000027b7          	lui	a5,0x2
     7a0:	0a07ae23          	sw	zero,188(a5) # 20bc <player2_score>
     7a4:	000027b7          	lui	a5,0x2
     7a8:	0c07a023          	sw	zero,192(a5) # 20c0 <player1_score>
     7ac:	040006b7          	lui	a3,0x4000
     7b0:	04000793          	li	a5,64
     7b4:	04f6a823          	sw	a5,80(a3) # 4000050 <_stack_end+0x3efded0>
     7b8:	04000737          	lui	a4,0x4000
     7bc:	06f72023          	sw	a5,96(a4) # 4000060 <_stack_end+0x3efdee0>
     7c0:	00002637          	lui	a2,0x2
     7c4:	0a062423          	sw	zero,168(a2) # 20a8 <seconds>
     7c8:	0000c5b7          	lui	a1,0xc
     7cc:	00002637          	lui	a2,0x2
     7d0:	0a062223          	sw	zero,164(a2) # 20a4 <minutes>
     7d4:	040007b7          	lui	a5,0x4000
     7d8:	6bf58593          	addi	a1,a1,1727 # c6bf <__global_pointer+0x9e43>
     7dc:	02b7a423          	sw	a1,40(a5) # 4000028 <_stack_end+0x3efdea8>
     7e0:	04000637          	lui	a2,0x4000
     7e4:	02d00593          	li	a1,45
     7e8:	040007b7          	lui	a5,0x4000
     7ec:	02b62623          	sw	a1,44(a2) # 400002c <_stack_end+0x3efdeac>
     7f0:	0247a603          	lw	a2,36(a5) # 4000024 <_stack_end+0x3efdea4>
     7f4:	00100713          	li	a4,1
     7f8:	00766613          	ori	a2,a2,7
     7fc:	02c7a223          	sw	a2,36(a5)
     800:	000027b7          	lui	a5,0x2
     804:	0ae7ac23          	sw	a4,184(a5) # 20b8 <game_state>
     808:	00008067          	ret

0000080c <increment_score>:
     80c:	00100793          	li	a5,1
     810:	02f50a63          	beq	a0,a5,844 <increment_score+0x38>
     814:	00200713          	li	a4,2
     818:	00e50463          	beq	a0,a4,820 <increment_score+0x14>
     81c:	00008067          	ret
     820:	000026b7          	lui	a3,0x2
     824:	0bc6a703          	lw	a4,188(a3) # 20bc <player2_score>
     828:	00170713          	addi	a4,a4,1
     82c:	0ae6ae23          	sw	a4,188(a3)
     830:	04071a63          	bnez	a4,884 <increment_score+0x78>
     834:	040007b7          	lui	a5,0x4000
     838:	04000713          	li	a4,64
     83c:	04e7a823          	sw	a4,80(a5) # 4000050 <_stack_end+0x3efded0>
     840:	00008067          	ret
     844:	00002737          	lui	a4,0x2
     848:	0c072783          	lw	a5,192(a4) # 20c0 <player1_score>
     84c:	00178793          	addi	a5,a5,1
     850:	0cf72023          	sw	a5,192(a4)
     854:	00079a63          	bnez	a5,868 <increment_score+0x5c>
     858:	040007b7          	lui	a5,0x4000
     85c:	04000713          	li	a4,64
     860:	06e7a023          	sw	a4,96(a5) # 4000060 <_stack_end+0x3efdee0>
     864:	00008067          	ret
     868:	04a78e63          	beq	a5,a0,8c4 <increment_score+0xb8>
     86c:	00200713          	li	a4,2
     870:	08e79a63          	bne	a5,a4,904 <increment_score+0xf8>
     874:	040007b7          	lui	a5,0x4000
     878:	02400713          	li	a4,36
     87c:	06e7a023          	sw	a4,96(a5) # 4000060 <_stack_end+0x3efdee0>
     880:	00008067          	ret
     884:	02f70863          	beq	a4,a5,8b4 <increment_score+0xa8>
     888:	04a70663          	beq	a4,a0,8d4 <increment_score+0xc8>
     88c:	00300793          	li	a5,3
     890:	04f70a63          	beq	a4,a5,8e4 <increment_score+0xd8>
     894:	00400793          	li	a5,4
     898:	04f70e63          	beq	a4,a5,8f4 <increment_score+0xe8>
     89c:	00500793          	li	a5,5
     8a0:	0cf71063          	bne	a4,a5,960 <increment_score+0x154>
     8a4:	040007b7          	lui	a5,0x4000
     8a8:	01200713          	li	a4,18
     8ac:	04e7a823          	sw	a4,80(a5) # 4000050 <_stack_end+0x3efded0>
     8b0:	00008067          	ret
     8b4:	040007b7          	lui	a5,0x4000
     8b8:	07900713          	li	a4,121
     8bc:	04e7a823          	sw	a4,80(a5) # 4000050 <_stack_end+0x3efded0>
     8c0:	00008067          	ret
     8c4:	040007b7          	lui	a5,0x4000
     8c8:	07900713          	li	a4,121
     8cc:	06e7a023          	sw	a4,96(a5) # 4000060 <_stack_end+0x3efdee0>
     8d0:	00008067          	ret
     8d4:	040007b7          	lui	a5,0x4000
     8d8:	02400713          	li	a4,36
     8dc:	04e7a823          	sw	a4,80(a5) # 4000050 <_stack_end+0x3efded0>
     8e0:	00008067          	ret
     8e4:	040007b7          	lui	a5,0x4000
     8e8:	03000713          	li	a4,48
     8ec:	04e7a823          	sw	a4,80(a5) # 4000050 <_stack_end+0x3efded0>
     8f0:	00008067          	ret
     8f4:	040007b7          	lui	a5,0x4000
     8f8:	01900713          	li	a4,25
     8fc:	04e7a823          	sw	a4,80(a5) # 4000050 <_stack_end+0x3efded0>
     900:	00008067          	ret
     904:	00300693          	li	a3,3
     908:	00d79a63          	bne	a5,a3,91c <increment_score+0x110>
     90c:	040007b7          	lui	a5,0x4000
     910:	03000713          	li	a4,48
     914:	06e7a023          	sw	a4,96(a5) # 4000060 <_stack_end+0x3efdee0>
     918:	00008067          	ret
     91c:	00400693          	li	a3,4
     920:	00d78e63          	beq	a5,a3,93c <increment_score+0x130>
     924:	00500693          	li	a3,5
     928:	02d79263          	bne	a5,a3,94c <increment_score+0x140>
     92c:	040007b7          	lui	a5,0x4000
     930:	01200713          	li	a4,18
     934:	06e7a023          	sw	a4,96(a5) # 4000060 <_stack_end+0x3efdee0>
     938:	00008067          	ret
     93c:	040007b7          	lui	a5,0x4000
     940:	01900713          	li	a4,25
     944:	06e7a023          	sw	a4,96(a5) # 4000060 <_stack_end+0x3efdee0>
     948:	00008067          	ret
     94c:	00600693          	li	a3,6
     950:	06d79463          	bne	a5,a3,9b8 <increment_score+0x1ac>
     954:	040007b7          	lui	a5,0x4000
     958:	06e7a023          	sw	a4,96(a5) # 4000060 <_stack_end+0x3efdee0>
     95c:	00008067          	ret
     960:	00600793          	li	a5,6
     964:	00f70e63          	beq	a4,a5,980 <increment_score+0x174>
     968:	00700793          	li	a5,7
     96c:	02f71063          	bne	a4,a5,98c <increment_score+0x180>
     970:	040007b7          	lui	a5,0x4000
     974:	07800713          	li	a4,120
     978:	04e7a823          	sw	a4,80(a5) # 4000050 <_stack_end+0x3efded0>
     97c:	00008067          	ret
     980:	040007b7          	lui	a5,0x4000
     984:	04a7a823          	sw	a0,80(a5) # 4000050 <_stack_end+0x3efded0>
     988:	00008067          	ret
     98c:	00800793          	li	a5,8
     990:	00f71863          	bne	a4,a5,9a0 <increment_score+0x194>
     994:	040007b7          	lui	a5,0x4000
     998:	0407a823          	sw	zero,80(a5) # 4000050 <_stack_end+0x3efded0>
     99c:	00008067          	ret
     9a0:	00900793          	li	a5,9
     9a4:	e6f71ce3          	bne	a4,a5,81c <increment_score+0x10>
     9a8:	040007b7          	lui	a5,0x4000
     9ac:	01000713          	li	a4,16
     9b0:	04e7a823          	sw	a4,80(a5) # 4000050 <_stack_end+0x3efded0>
     9b4:	00008067          	ret
     9b8:	00700713          	li	a4,7
     9bc:	00e78c63          	beq	a5,a4,9d4 <increment_score+0x1c8>
     9c0:	00800713          	li	a4,8
     9c4:	02e79063          	bne	a5,a4,9e4 <increment_score+0x1d8>
     9c8:	040007b7          	lui	a5,0x4000
     9cc:	0607a023          	sw	zero,96(a5) # 4000060 <_stack_end+0x3efdee0>
     9d0:	00008067          	ret
     9d4:	040007b7          	lui	a5,0x4000
     9d8:	07800713          	li	a4,120
     9dc:	06e7a023          	sw	a4,96(a5) # 4000060 <_stack_end+0x3efdee0>
     9e0:	00008067          	ret
     9e4:	00900713          	li	a4,9
     9e8:	e2e79ae3          	bne	a5,a4,81c <increment_score+0x10>
     9ec:	040007b7          	lui	a5,0x4000
     9f0:	01000713          	li	a4,16
     9f4:	06e7a023          	sw	a4,96(a5) # 4000060 <_stack_end+0x3efdee0>
     9f8:	00008067          	ret

000009fc <rotate_ball_vector_counter_clockwise>:
     9fc:	fd010113          	addi	sp,sp,-48
     a00:	02912223          	sw	s1,36(sp)
     a04:	03212023          	sw	s2,32(sp)
     a08:	01312e23          	sw	s3,28(sp)
     a0c:	01412c23          	sw	s4,24(sp)
     a10:	000024b7          	lui	s1,0x2
     a14:	000029b7          	lui	s3,0x2
     a18:	02112623          	sw	ra,44(sp)
     a1c:	02812423          	sw	s0,40(sp)
     a20:	03c00793          	li	a5,60
     a24:	0c84aa03          	lw	s4,200(s1) # 20c8 <ball_dx>
     a28:	0c49a903          	lw	s2,196(s3) # 20c4 <ball_dy>
     a2c:	1af50463          	beq	a0,a5,bd4 <rotate_ball_vector_counter_clockwise+0x1d8>
     a30:	0ca7c063          	blt	a5,a0,af0 <rotate_ball_vector_counter_clockwise+0xf4>
     a34:	01512a23          	sw	s5,20(sp)
     a38:	01612823          	sw	s6,16(sp)
     a3c:	01e00793          	li	a5,30
     a40:	10f50c63          	beq	a0,a5,b58 <rotate_ball_vector_counter_clockwise+0x15c>
     a44:	02d00793          	li	a5,45
     a48:	20f50663          	beq	a0,a5,c54 <rotate_ball_vector_counter_clockwise+0x258>
     a4c:	00f00793          	li	a5,15
     a50:	0ef51a63          	bne	a0,a5,b44 <rotate_ball_vector_counter_clockwise+0x148>
     a54:	000a0513          	mv	a0,s4
     a58:	01712623          	sw	s7,12(sp)
     a5c:	01812423          	sw	s8,8(sp)
     a60:	440010ef          	jal	1ea0 <__floatsisf>
     a64:	00050b13          	mv	s6,a0
     a68:	00090513          	mv	a0,s2
     a6c:	434010ef          	jal	1ea0 <__floatsisf>
     a70:	00002bb7          	lui	s7,0x2
     a74:	0d4ba583          	lw	a1,212(s7) # 20d4 <player1_dy+0x4>
     a78:	00050a93          	mv	s5,a0
     a7c:	000b0513          	mv	a0,s6
     a80:	478010ef          	jal	1ef8 <__mulsf3>
     a84:	00002c37          	lui	s8,0x2
     a88:	0d8c2583          	lw	a1,216(s8) # 20d8 <player1_dy+0x8>
     a8c:	00050413          	mv	s0,a0
     a90:	000a8513          	mv	a0,s5
     a94:	464010ef          	jal	1ef8 <__mulsf3>
     a98:	00050593          	mv	a1,a0
     a9c:	00040513          	mv	a0,s0
     aa0:	1e4010ef          	jal	1c84 <__subsf3>
     aa4:	3ac010ef          	jal	1e50 <__fixsfsi>
     aa8:	0d8c2583          	lw	a1,216(s8)
     aac:	00050413          	mv	s0,a0
     ab0:	000b0513          	mv	a0,s6
     ab4:	444010ef          	jal	1ef8 <__mulsf3>
     ab8:	0d4ba583          	lw	a1,212(s7)
     abc:	00050793          	mv	a5,a0
     ac0:	000a8513          	mv	a0,s5
     ac4:	00078a93          	mv	s5,a5
     ac8:	430010ef          	jal	1ef8 <__mulsf3>
     acc:	00050593          	mv	a1,a0
     ad0:	000a8513          	mv	a0,s5
     ad4:	1b8010ef          	jal	1c8c <__addsf3>
     ad8:	378010ef          	jal	1e50 <__fixsfsi>
     adc:	01412a83          	lw	s5,20(sp)
     ae0:	01012b03          	lw	s6,16(sp)
     ae4:	00c12b83          	lw	s7,12(sp)
     ae8:	00812c03          	lw	s8,8(sp)
     aec:	01c0006f          	j	b08 <rotate_ball_vector_counter_clockwise+0x10c>
     af0:	04b00793          	li	a5,75
     af4:	1af50e63          	beq	a0,a5,cb0 <rotate_ball_vector_counter_clockwise+0x2b4>
     af8:	05a00793          	li	a5,90
     afc:	0cf51663          	bne	a0,a5,bc8 <rotate_ball_vector_counter_clockwise+0x1cc>
     b00:	41200433          	neg	s0,s2
     b04:	000a0513          	mv	a0,s4
     b08:	0c84a423          	sw	s0,200(s1)
     b0c:	0ca9a223          	sw	a0,196(s3)
     b10:	00a46433          	or	s0,s0,a0
     b14:	00041863          	bnez	s0,b24 <rotate_ball_vector_counter_clockwise+0x128>
     b18:	41200933          	neg	s2,s2
     b1c:	0d44a423          	sw	s4,200(s1)
     b20:	0d29a223          	sw	s2,196(s3)
     b24:	02c12083          	lw	ra,44(sp)
     b28:	02812403          	lw	s0,40(sp)
     b2c:	02412483          	lw	s1,36(sp)
     b30:	02012903          	lw	s2,32(sp)
     b34:	01c12983          	lw	s3,28(sp)
     b38:	01812a03          	lw	s4,24(sp)
     b3c:	03010113          	addi	sp,sp,48
     b40:	00008067          	ret
     b44:	01600793          	li	a5,22
     b48:	f0a7d6e3          	bge	a5,a0,a54 <rotate_ball_vector_counter_clockwise+0x58>
     b4c:	fe950793          	addi	a5,a0,-23
     b50:	00e00713          	li	a4,14
     b54:	0ef76c63          	bltu	a4,a5,c4c <rotate_ball_vector_counter_clockwise+0x250>
     b58:	000a0513          	mv	a0,s4
     b5c:	01712623          	sw	s7,12(sp)
     b60:	01812423          	sw	s8,8(sp)
     b64:	33c010ef          	jal	1ea0 <__floatsisf>
     b68:	00050b13          	mv	s6,a0
     b6c:	00090513          	mv	a0,s2
     b70:	330010ef          	jal	1ea0 <__floatsisf>
     b74:	00002bb7          	lui	s7,0x2
     b78:	0dcba583          	lw	a1,220(s7) # 20dc <player1_dy+0xc>
     b7c:	00050a93          	mv	s5,a0
     b80:	000b0513          	mv	a0,s6
     b84:	374010ef          	jal	1ef8 <__mulsf3>
     b88:	00002c37          	lui	s8,0x2
     b8c:	0e0c2583          	lw	a1,224(s8) # 20e0 <player1_dy+0x10>
     b90:	00050413          	mv	s0,a0
     b94:	000a8513          	mv	a0,s5
     b98:	360010ef          	jal	1ef8 <__mulsf3>
     b9c:	00050593          	mv	a1,a0
     ba0:	00040513          	mv	a0,s0
     ba4:	0e0010ef          	jal	1c84 <__subsf3>
     ba8:	2a8010ef          	jal	1e50 <__fixsfsi>
     bac:	0e0c2583          	lw	a1,224(s8)
     bb0:	00050413          	mv	s0,a0
     bb4:	000b0513          	mv	a0,s6
     bb8:	340010ef          	jal	1ef8 <__mulsf3>
     bbc:	0dcba583          	lw	a1,220(s7)
     bc0:	00050793          	mv	a5,a0
     bc4:	efdff06f          	j	ac0 <rotate_ball_vector_counter_clockwise+0xc4>
     bc8:	fcb50793          	addi	a5,a0,-53
     bcc:	00e00713          	li	a4,14
     bd0:	14f76c63          	bltu	a4,a5,d28 <rotate_ball_vector_counter_clockwise+0x32c>
     bd4:	01512a23          	sw	s5,20(sp)
     bd8:	01612823          	sw	s6,16(sp)
     bdc:	000a0513          	mv	a0,s4
     be0:	01712623          	sw	s7,12(sp)
     be4:	01812423          	sw	s8,8(sp)
     be8:	2b8010ef          	jal	1ea0 <__floatsisf>
     bec:	00050b13          	mv	s6,a0
     bf0:	00090513          	mv	a0,s2
     bf4:	2ac010ef          	jal	1ea0 <__floatsisf>
     bf8:	00002bb7          	lui	s7,0x2
     bfc:	0e8ba583          	lw	a1,232(s7) # 20e8 <player1_dy+0x18>
     c00:	00050a93          	mv	s5,a0
     c04:	000b0513          	mv	a0,s6
     c08:	2f0010ef          	jal	1ef8 <__mulsf3>
     c0c:	00002c37          	lui	s8,0x2
     c10:	0ecc2583          	lw	a1,236(s8) # 20ec <player1_dy+0x1c>
     c14:	00050413          	mv	s0,a0
     c18:	000a8513          	mv	a0,s5
     c1c:	2dc010ef          	jal	1ef8 <__mulsf3>
     c20:	00050593          	mv	a1,a0
     c24:	00040513          	mv	a0,s0
     c28:	05c010ef          	jal	1c84 <__subsf3>
     c2c:	224010ef          	jal	1e50 <__fixsfsi>
     c30:	0ecc2583          	lw	a1,236(s8)
     c34:	00050413          	mv	s0,a0
     c38:	000b0513          	mv	a0,s6
     c3c:	2bc010ef          	jal	1ef8 <__mulsf3>
     c40:	0e8ba583          	lw	a1,232(s7)
     c44:	00050793          	mv	a5,a0
     c48:	e79ff06f          	j	ac0 <rotate_ball_vector_counter_clockwise+0xc4>
     c4c:	fda50513          	addi	a0,a0,-38
     c50:	f8a766e3          	bltu	a4,a0,bdc <rotate_ball_vector_counter_clockwise+0x1e0>
     c54:	000a0513          	mv	a0,s4
     c58:	00002437          	lui	s0,0x2
     c5c:	244010ef          	jal	1ea0 <__floatsisf>
     c60:	0e442583          	lw	a1,228(s0) # 20e4 <player1_dy+0x14>
     c64:	294010ef          	jal	1ef8 <__mulsf3>
     c68:	00050a93          	mv	s5,a0
     c6c:	00090513          	mv	a0,s2
     c70:	230010ef          	jal	1ea0 <__floatsisf>
     c74:	0e442583          	lw	a1,228(s0)
     c78:	280010ef          	jal	1ef8 <__mulsf3>
     c7c:	00050593          	mv	a1,a0
     c80:	00050b13          	mv	s6,a0
     c84:	000a8513          	mv	a0,s5
     c88:	7fd000ef          	jal	1c84 <__subsf3>
     c8c:	1c4010ef          	jal	1e50 <__fixsfsi>
     c90:	000b0593          	mv	a1,s6
     c94:	00050413          	mv	s0,a0
     c98:	000a8513          	mv	a0,s5
     c9c:	7f1000ef          	jal	1c8c <__addsf3>
     ca0:	1b0010ef          	jal	1e50 <__fixsfsi>
     ca4:	01412a83          	lw	s5,20(sp)
     ca8:	01012b03          	lw	s6,16(sp)
     cac:	e5dff06f          	j	b08 <rotate_ball_vector_counter_clockwise+0x10c>
     cb0:	000a0513          	mv	a0,s4
     cb4:	01512a23          	sw	s5,20(sp)
     cb8:	01612823          	sw	s6,16(sp)
     cbc:	01712623          	sw	s7,12(sp)
     cc0:	01812423          	sw	s8,8(sp)
     cc4:	1dc010ef          	jal	1ea0 <__floatsisf>
     cc8:	00050b13          	mv	s6,a0
     ccc:	00090513          	mv	a0,s2
     cd0:	1d0010ef          	jal	1ea0 <__floatsisf>
     cd4:	00002bb7          	lui	s7,0x2
     cd8:	0f0ba583          	lw	a1,240(s7) # 20f0 <player1_dy+0x20>
     cdc:	00050a93          	mv	s5,a0
     ce0:	000b0513          	mv	a0,s6
     ce4:	214010ef          	jal	1ef8 <__mulsf3>
     ce8:	00002c37          	lui	s8,0x2
     cec:	0f4c2583          	lw	a1,244(s8) # 20f4 <player1_dy+0x24>
     cf0:	00050413          	mv	s0,a0
     cf4:	000a8513          	mv	a0,s5
     cf8:	200010ef          	jal	1ef8 <__mulsf3>
     cfc:	00050593          	mv	a1,a0
     d00:	00040513          	mv	a0,s0
     d04:	781000ef          	jal	1c84 <__subsf3>
     d08:	148010ef          	jal	1e50 <__fixsfsi>
     d0c:	0f4c2583          	lw	a1,244(s8)
     d10:	00050413          	mv	s0,a0
     d14:	000b0513          	mv	a0,s6
     d18:	1e0010ef          	jal	1ef8 <__mulsf3>
     d1c:	0f0ba583          	lw	a1,240(s7)
     d20:	00050793          	mv	a5,a0
     d24:	d9dff06f          	j	ac0 <rotate_ball_vector_counter_clockwise+0xc4>
     d28:	fbc50793          	addi	a5,a0,-68
     d2c:	f8f772e3          	bgeu	a4,a5,cb0 <rotate_ball_vector_counter_clockwise+0x2b4>
     d30:	05200793          	li	a5,82
     d34:	dca7c6e3          	blt	a5,a0,b00 <rotate_ball_vector_counter_clockwise+0x104>
     d38:	01512a23          	sw	s5,20(sp)
     d3c:	01612823          	sw	s6,16(sp)
     d40:	d15ff06f          	j	a54 <rotate_ball_vector_counter_clockwise+0x58>

00000d44 <rotate_ball_vector_clockwise>:
     d44:	fd010113          	addi	sp,sp,-48
     d48:	02912223          	sw	s1,36(sp)
     d4c:	03212023          	sw	s2,32(sp)
     d50:	01312e23          	sw	s3,28(sp)
     d54:	01412c23          	sw	s4,24(sp)
     d58:	000029b7          	lui	s3,0x2
     d5c:	00002937          	lui	s2,0x2
     d60:	02112623          	sw	ra,44(sp)
     d64:	02812423          	sw	s0,40(sp)
     d68:	03c00793          	li	a5,60
     d6c:	0c89aa03          	lw	s4,200(s3) # 20c8 <ball_dx>
     d70:	0c492483          	lw	s1,196(s2) # 20c4 <ball_dy>
     d74:	28f50863          	beq	a0,a5,1004 <rotate_ball_vector_clockwise+0x2c0>
     d78:	0ca7c863          	blt	a5,a0,e48 <rotate_ball_vector_clockwise+0x104>
     d7c:	01512a23          	sw	s5,20(sp)
     d80:	01612823          	sw	s6,16(sp)
     d84:	01e00793          	li	a5,30
     d88:	10f50e63          	beq	a0,a5,ea4 <rotate_ball_vector_clockwise+0x160>
     d8c:	02d00793          	li	a5,45
     d90:	20f50c63          	beq	a0,a5,fa8 <rotate_ball_vector_clockwise+0x264>
     d94:	00f00793          	li	a5,15
     d98:	0ef51c63          	bne	a0,a5,e90 <rotate_ball_vector_clockwise+0x14c>
     d9c:	000a0513          	mv	a0,s4
     da0:	01712623          	sw	s7,12(sp)
     da4:	01812423          	sw	s8,8(sp)
     da8:	0f8010ef          	jal	1ea0 <__floatsisf>
     dac:	00050b13          	mv	s6,a0
     db0:	00048513          	mv	a0,s1
     db4:	0ec010ef          	jal	1ea0 <__floatsisf>
     db8:	00002bb7          	lui	s7,0x2
     dbc:	0d4ba583          	lw	a1,212(s7) # 20d4 <player1_dy+0x4>
     dc0:	00050a93          	mv	s5,a0
     dc4:	000b0513          	mv	a0,s6
     dc8:	130010ef          	jal	1ef8 <__mulsf3>
     dcc:	00002c37          	lui	s8,0x2
     dd0:	0d8c2583          	lw	a1,216(s8) # 20d8 <player1_dy+0x8>
     dd4:	00050413          	mv	s0,a0
     dd8:	000a8513          	mv	a0,s5
     ddc:	11c010ef          	jal	1ef8 <__mulsf3>
     de0:	00050593          	mv	a1,a0
     de4:	00040513          	mv	a0,s0
     de8:	69d000ef          	jal	1c84 <__subsf3>
     dec:	064010ef          	jal	1e50 <__fixsfsi>
     df0:	0d8c2583          	lw	a1,216(s8)
     df4:	00050413          	mv	s0,a0
     df8:	000b0513          	mv	a0,s6
     dfc:	0fc010ef          	jal	1ef8 <__mulsf3>
     e00:	0d4ba583          	lw	a1,212(s7)
     e04:	00050793          	mv	a5,a0
     e08:	000a8513          	mv	a0,s5
     e0c:	00078a93          	mv	s5,a5
     e10:	0e8010ef          	jal	1ef8 <__mulsf3>
     e14:	00050593          	mv	a1,a0
     e18:	000a8513          	mv	a0,s5
     e1c:	671000ef          	jal	1c8c <__addsf3>
     e20:	030010ef          	jal	1e50 <__fixsfsi>
     e24:	00a467b3          	or	a5,s0,a0
     e28:	01412a83          	lw	s5,20(sp)
     e2c:	01012b03          	lw	s6,16(sp)
     e30:	00c12b83          	lw	s7,12(sp)
     e34:	00812c03          	lw	s8,8(sp)
     e38:	02078863          	beqz	a5,e68 <rotate_ball_vector_clockwise+0x124>
     e3c:	0c89a423          	sw	s0,200(s3)
     e40:	40a004b3          	neg	s1,a0
     e44:	0280006f          	j	e6c <rotate_ball_vector_clockwise+0x128>
     e48:	04b00793          	li	a5,75
     e4c:	0cf50e63          	beq	a0,a5,f28 <rotate_ball_vector_clockwise+0x1e4>
     e50:	05a00793          	li	a5,90
     e54:	0cf51063          	bne	a0,a5,f14 <rotate_ball_vector_clockwise+0x1d0>
     e58:	40900433          	neg	s0,s1
     e5c:	000a0513          	mv	a0,s4
     e60:	00a467b3          	or	a5,s0,a0
     e64:	fc079ce3          	bnez	a5,e3c <rotate_ball_vector_clockwise+0xf8>
     e68:	0d49a423          	sw	s4,200(s3)
     e6c:	02c12083          	lw	ra,44(sp)
     e70:	02812403          	lw	s0,40(sp)
     e74:	0c992223          	sw	s1,196(s2)
     e78:	01c12983          	lw	s3,28(sp)
     e7c:	02412483          	lw	s1,36(sp)
     e80:	02012903          	lw	s2,32(sp)
     e84:	01812a03          	lw	s4,24(sp)
     e88:	03010113          	addi	sp,sp,48
     e8c:	00008067          	ret
     e90:	01600793          	li	a5,22
     e94:	f0a7d4e3          	bge	a5,a0,d9c <rotate_ball_vector_clockwise+0x58>
     e98:	fe950793          	addi	a5,a0,-23
     e9c:	00e00713          	li	a4,14
     ea0:	10f76063          	bltu	a4,a5,fa0 <rotate_ball_vector_clockwise+0x25c>
     ea4:	000a0513          	mv	a0,s4
     ea8:	01712623          	sw	s7,12(sp)
     eac:	01812423          	sw	s8,8(sp)
     eb0:	7f1000ef          	jal	1ea0 <__floatsisf>
     eb4:	00050b13          	mv	s6,a0
     eb8:	00048513          	mv	a0,s1
     ebc:	7e5000ef          	jal	1ea0 <__floatsisf>
     ec0:	00002bb7          	lui	s7,0x2
     ec4:	0dcba583          	lw	a1,220(s7) # 20dc <player1_dy+0xc>
     ec8:	00050a93          	mv	s5,a0
     ecc:	000b0513          	mv	a0,s6
     ed0:	028010ef          	jal	1ef8 <__mulsf3>
     ed4:	00002c37          	lui	s8,0x2
     ed8:	0e0c2583          	lw	a1,224(s8) # 20e0 <player1_dy+0x10>
     edc:	00050413          	mv	s0,a0
     ee0:	000a8513          	mv	a0,s5
     ee4:	014010ef          	jal	1ef8 <__mulsf3>
     ee8:	00050593          	mv	a1,a0
     eec:	00040513          	mv	a0,s0
     ef0:	595000ef          	jal	1c84 <__subsf3>
     ef4:	75d000ef          	jal	1e50 <__fixsfsi>
     ef8:	0e0c2583          	lw	a1,224(s8)
     efc:	00050413          	mv	s0,a0
     f00:	000b0513          	mv	a0,s6
     f04:	7f5000ef          	jal	1ef8 <__mulsf3>
     f08:	0dcba583          	lw	a1,220(s7)
     f0c:	00050793          	mv	a5,a0
     f10:	ef9ff06f          	j	e08 <rotate_ball_vector_clockwise+0xc4>
     f14:	fcb50793          	addi	a5,a0,-53
     f18:	00e00713          	li	a4,14
     f1c:	0ef77463          	bgeu	a4,a5,1004 <rotate_ball_vector_clockwise+0x2c0>
     f20:	fbc50513          	addi	a0,a0,-68
     f24:	f2a76ae3          	bltu	a4,a0,e58 <rotate_ball_vector_clockwise+0x114>
     f28:	000a0513          	mv	a0,s4
     f2c:	01512a23          	sw	s5,20(sp)
     f30:	01612823          	sw	s6,16(sp)
     f34:	01712623          	sw	s7,12(sp)
     f38:	01812423          	sw	s8,8(sp)
     f3c:	765000ef          	jal	1ea0 <__floatsisf>
     f40:	00050b13          	mv	s6,a0
     f44:	00048513          	mv	a0,s1
     f48:	759000ef          	jal	1ea0 <__floatsisf>
     f4c:	00002bb7          	lui	s7,0x2
     f50:	0f0ba583          	lw	a1,240(s7) # 20f0 <player1_dy+0x20>
     f54:	00050a93          	mv	s5,a0
     f58:	000b0513          	mv	a0,s6
     f5c:	79d000ef          	jal	1ef8 <__mulsf3>
     f60:	00002c37          	lui	s8,0x2
     f64:	0f4c2583          	lw	a1,244(s8) # 20f4 <player1_dy+0x24>
     f68:	00050413          	mv	s0,a0
     f6c:	000a8513          	mv	a0,s5
     f70:	789000ef          	jal	1ef8 <__mulsf3>
     f74:	00050593          	mv	a1,a0
     f78:	00040513          	mv	a0,s0
     f7c:	509000ef          	jal	1c84 <__subsf3>
     f80:	6d1000ef          	jal	1e50 <__fixsfsi>
     f84:	0f4c2583          	lw	a1,244(s8)
     f88:	00050413          	mv	s0,a0
     f8c:	000b0513          	mv	a0,s6
     f90:	769000ef          	jal	1ef8 <__mulsf3>
     f94:	0f0ba583          	lw	a1,240(s7)
     f98:	00050793          	mv	a5,a0
     f9c:	e6dff06f          	j	e08 <rotate_ball_vector_clockwise+0xc4>
     fa0:	fda50513          	addi	a0,a0,-38
     fa4:	06a76463          	bltu	a4,a0,100c <rotate_ball_vector_clockwise+0x2c8>
     fa8:	000a0513          	mv	a0,s4
     fac:	00002437          	lui	s0,0x2
     fb0:	6f1000ef          	jal	1ea0 <__floatsisf>
     fb4:	0e442583          	lw	a1,228(s0) # 20e4 <player1_dy+0x14>
     fb8:	741000ef          	jal	1ef8 <__mulsf3>
     fbc:	00050a93          	mv	s5,a0
     fc0:	00048513          	mv	a0,s1
     fc4:	6dd000ef          	jal	1ea0 <__floatsisf>
     fc8:	0e442583          	lw	a1,228(s0)
     fcc:	72d000ef          	jal	1ef8 <__mulsf3>
     fd0:	00050593          	mv	a1,a0
     fd4:	00050b13          	mv	s6,a0
     fd8:	000a8513          	mv	a0,s5
     fdc:	4a9000ef          	jal	1c84 <__subsf3>
     fe0:	671000ef          	jal	1e50 <__fixsfsi>
     fe4:	000b0593          	mv	a1,s6
     fe8:	00050413          	mv	s0,a0
     fec:	000a8513          	mv	a0,s5
     ff0:	49d000ef          	jal	1c8c <__addsf3>
     ff4:	65d000ef          	jal	1e50 <__fixsfsi>
     ff8:	01412a83          	lw	s5,20(sp)
     ffc:	01012b03          	lw	s6,16(sp)
    1000:	e61ff06f          	j	e60 <rotate_ball_vector_clockwise+0x11c>
    1004:	01512a23          	sw	s5,20(sp)
    1008:	01612823          	sw	s6,16(sp)
    100c:	000a0513          	mv	a0,s4
    1010:	01712623          	sw	s7,12(sp)
    1014:	01812423          	sw	s8,8(sp)
    1018:	689000ef          	jal	1ea0 <__floatsisf>
    101c:	00050b13          	mv	s6,a0
    1020:	00048513          	mv	a0,s1
    1024:	67d000ef          	jal	1ea0 <__floatsisf>
    1028:	00002bb7          	lui	s7,0x2
    102c:	0e8ba583          	lw	a1,232(s7) # 20e8 <player1_dy+0x18>
    1030:	00050a93          	mv	s5,a0
    1034:	000b0513          	mv	a0,s6
    1038:	6c1000ef          	jal	1ef8 <__mulsf3>
    103c:	00002c37          	lui	s8,0x2
    1040:	0ecc2583          	lw	a1,236(s8) # 20ec <player1_dy+0x1c>
    1044:	00050413          	mv	s0,a0
    1048:	000a8513          	mv	a0,s5
    104c:	6ad000ef          	jal	1ef8 <__mulsf3>
    1050:	00050593          	mv	a1,a0
    1054:	00040513          	mv	a0,s0
    1058:	42d000ef          	jal	1c84 <__subsf3>
    105c:	5f5000ef          	jal	1e50 <__fixsfsi>
    1060:	0ecc2583          	lw	a1,236(s8)
    1064:	00050413          	mv	s0,a0
    1068:	000b0513          	mv	a0,s6
    106c:	68d000ef          	jal	1ef8 <__mulsf3>
    1070:	0e8ba583          	lw	a1,232(s7)
    1074:	00050793          	mv	a5,a0
    1078:	d91ff06f          	j	e08 <rotate_ball_vector_clockwise+0xc4>

0000107c <handle_collision>:
    107c:	fe010113          	addi	sp,sp,-32
    1080:	00912a23          	sw	s1,20(sp)
    1084:	000024b7          	lui	s1,0x2
    1088:	0c44a683          	lw	a3,196(s1) # 20c4 <ball_dy>
    108c:	00812c23          	sw	s0,24(sp)
    1090:	00002737          	lui	a4,0x2
    1094:	00112e23          	sw	ra,28(sp)
    1098:	0c872783          	lw	a5,200(a4) # 20c8 <ball_dx>
    109c:	00050413          	mv	s0,a0
    10a0:	08069e63          	bnez	a3,113c <handle_collision+0xc0>
    10a4:	40f007b3          	neg	a5,a5
    10a8:	0cf72423          	sw	a5,200(a4)
    10ac:	00200793          	li	a5,2
    10b0:	0af40c63          	beq	s0,a5,1168 <handle_collision+0xec>
    10b4:	00300793          	li	a5,3
    10b8:	06f41863          	bne	s0,a5,1128 <handle_collision+0xac>
    10bc:	01212823          	sw	s2,16(sp)
    10c0:	01312623          	sw	s3,12(sp)
    10c4:	00002937          	lui	s2,0x2
    10c8:	000029b7          	lui	s3,0x2
    10cc:	08c9a683          	lw	a3,140(s3) # 208c <ball_y>
    10d0:	09492783          	lw	a5,148(s2) # 2094 <player2_y>
    10d4:	00002437          	lui	s0,0x2
    10d8:	08842603          	lw	a2,136(s0) # 2088 <paddle_height>
    10dc:	02f6c663          	blt	a3,a5,1108 <handle_collision+0x8c>
    10e0:	01f65713          	srli	a4,a2,0x1f
    10e4:	00c70733          	add	a4,a4,a2
    10e8:	40175713          	srai	a4,a4,0x1
    10ec:	00f707b3          	add	a5,a4,a5
    10f0:	02d7c863          	blt	a5,a3,1120 <handle_collision+0xa4>
    10f4:	04b00513          	li	a0,75
    10f8:	905ff0ef          	jal	9fc <rotate_ball_vector_counter_clockwise>
    10fc:	08c9a683          	lw	a3,140(s3)
    1100:	09492783          	lw	a5,148(s2)
    1104:	00f6de63          	bge	a3,a5,1120 <handle_collision+0xa4>
    1108:	08842603          	lw	a2,136(s0)
    110c:	01f65713          	srli	a4,a2,0x1f
    1110:	00c70733          	add	a4,a4,a2
    1114:	40175713          	srai	a4,a4,0x1
    1118:	40e787b3          	sub	a5,a5,a4
    111c:	10f6d263          	bge	a3,a5,1220 <handle_collision+0x1a4>
    1120:	01012903          	lw	s2,16(sp)
    1124:	00c12983          	lw	s3,12(sp)
    1128:	01c12083          	lw	ra,28(sp)
    112c:	01812403          	lw	s0,24(sp)
    1130:	01412483          	lw	s1,20(sp)
    1134:	02010113          	addi	sp,sp,32
    1138:	00008067          	ret
    113c:	0c078663          	beqz	a5,1208 <handle_collision+0x18c>
    1140:	00100793          	li	a5,1
    1144:	05a00513          	li	a0,90
    1148:	0a06ca63          	bltz	a3,11fc <handle_collision+0x180>
    114c:	06f40263          	beq	s0,a5,11b0 <handle_collision+0x134>
    1150:	8adff0ef          	jal	9fc <rotate_ball_vector_counter_clockwise>
    1154:	0c44a783          	lw	a5,196(s1)
    1158:	40f007b3          	neg	a5,a5
    115c:	0cf4a223          	sw	a5,196(s1)
    1160:	00200793          	li	a5,2
    1164:	f4f418e3          	bne	s0,a5,10b4 <handle_collision+0x38>
    1168:	01212823          	sw	s2,16(sp)
    116c:	01312623          	sw	s3,12(sp)
    1170:	00002937          	lui	s2,0x2
    1174:	000029b7          	lui	s3,0x2
    1178:	08c9a683          	lw	a3,140(s3) # 208c <ball_y>
    117c:	09892783          	lw	a5,152(s2) # 2098 <player1_y>
    1180:	00002437          	lui	s0,0x2
    1184:	08842603          	lw	a2,136(s0) # 2088 <paddle_height>
    1188:	02f6de63          	bge	a3,a5,11c4 <handle_collision+0x148>
    118c:	08842603          	lw	a2,136(s0)
    1190:	01f65713          	srli	a4,a2,0x1f
    1194:	00c70733          	add	a4,a4,a2
    1198:	40175713          	srai	a4,a4,0x1
    119c:	40e787b3          	sub	a5,a5,a4
    11a0:	f8f6c0e3          	blt	a3,a5,1120 <handle_collision+0xa4>
    11a4:	01012903          	lw	s2,16(sp)
    11a8:	00c12983          	lw	s3,12(sp)
    11ac:	04b00513          	li	a0,75
    11b0:	01812403          	lw	s0,24(sp)
    11b4:	01c12083          	lw	ra,28(sp)
    11b8:	01412483          	lw	s1,20(sp)
    11bc:	02010113          	addi	sp,sp,32
    11c0:	83dff06f          	j	9fc <rotate_ball_vector_counter_clockwise>
    11c4:	01f65713          	srli	a4,a2,0x1f
    11c8:	00c70733          	add	a4,a4,a2
    11cc:	40175713          	srai	a4,a4,0x1
    11d0:	00f707b3          	add	a5,a4,a5
    11d4:	f4d7c6e3          	blt	a5,a3,1120 <handle_collision+0xa4>
    11d8:	04b00513          	li	a0,75
    11dc:	821ff0ef          	jal	9fc <rotate_ball_vector_counter_clockwise>
    11e0:	0c44a703          	lw	a4,196(s1)
    11e4:	08c9a683          	lw	a3,140(s3)
    11e8:	09892783          	lw	a5,152(s2)
    11ec:	40e00733          	neg	a4,a4
    11f0:	0ce4a223          	sw	a4,196(s1)
    11f4:	f2f6d6e3          	bge	a3,a5,1120 <handle_collision+0xa4>
    11f8:	f95ff06f          	j	118c <handle_collision+0x110>
    11fc:	04f40263          	beq	s0,a5,1240 <handle_collision+0x1c4>
    1200:	ffcff0ef          	jal	9fc <rotate_ball_vector_counter_clockwise>
    1204:	ea9ff06f          	j	10ac <handle_collision+0x30>
    1208:	00500513          	li	a0,5
    120c:	ff0ff0ef          	jal	9fc <rotate_ball_vector_counter_clockwise>
    1210:	0c44a783          	lw	a5,196(s1)
    1214:	40f007b3          	neg	a5,a5
    1218:	0cf4a223          	sw	a5,196(s1)
    121c:	e91ff06f          	j	10ac <handle_collision+0x30>
    1220:	04b00513          	li	a0,75
    1224:	fd8ff0ef          	jal	9fc <rotate_ball_vector_counter_clockwise>
    1228:	0c44a783          	lw	a5,196(s1)
    122c:	01012903          	lw	s2,16(sp)
    1230:	00c12983          	lw	s3,12(sp)
    1234:	40f007b3          	neg	a5,a5
    1238:	0cf4a223          	sw	a5,196(s1)
    123c:	eedff06f          	j	1128 <handle_collision+0xac>
    1240:	fbcff0ef          	jal	9fc <rotate_ball_vector_counter_clockwise>
    1244:	0c44a783          	lw	a5,196(s1)
    1248:	40f007b3          	neg	a5,a5
    124c:	0cf4a223          	sw	a5,196(s1)
    1250:	ed9ff06f          	j	1128 <handle_collision+0xac>

00001254 <move_ball>:
    1254:	fe010113          	addi	sp,sp,-32
    1258:	00912a23          	sw	s1,20(sp)
    125c:	01212823          	sw	s2,16(sp)
    1260:	000024b7          	lui	s1,0x2
    1264:	00002937          	lui	s2,0x2
    1268:	01312623          	sw	s3,12(sp)
    126c:	01412423          	sw	s4,8(sp)
    1270:	000029b7          	lui	s3,0x2
    1274:	00002a37          	lui	s4,0x2
    1278:	09092703          	lw	a4,144(s2) # 2090 <ball_x>
    127c:	08c4a783          	lw	a5,140(s1) # 208c <ball_y>
    1280:	0c8a2683          	lw	a3,200(s4) # 20c8 <ball_dx>
    1284:	0c49a603          	lw	a2,196(s3) # 20c4 <ball_dy>
    1288:	00112e23          	sw	ra,28(sp)
    128c:	00e68733          	add	a4,a3,a4
    1290:	00f607b3          	add	a5,a2,a5
    1294:	08f4a623          	sw	a5,140(s1)
    1298:	00812c23          	sw	s0,24(sp)
    129c:	0ee00593          	li	a1,238
    12a0:	08e92823          	sw	a4,144(s2)
    12a4:	fff78793          	addi	a5,a5,-1
    12a8:	10f5ea63          	bltu	a1,a5,13bc <move_ball+0x168>
    12ac:	00d00793          	li	a5,13
    12b0:	06e7d263          	bge	a5,a4,1314 <move_ball+0xc0>
    12b4:	13200793          	li	a5,306
    12b8:	00002437          	lui	s0,0x2
    12bc:	02e7dc63          	bge	a5,a4,12f4 <move_ball+0xa0>
    12c0:	08842603          	lw	a2,136(s0) # 2088 <paddle_height>
    12c4:	000027b7          	lui	a5,0x2
    12c8:	0947a683          	lw	a3,148(a5) # 2094 <player2_y>
    12cc:	01f65793          	srli	a5,a2,0x1f
    12d0:	00c787b3          	add	a5,a5,a2
    12d4:	08c4a603          	lw	a2,140(s1)
    12d8:	4017d793          	srai	a5,a5,0x1
    12dc:	00d785b3          	add	a1,a5,a3
    12e0:	00c5c663          	blt	a1,a2,12ec <move_ball+0x98>
    12e4:	40f686b3          	sub	a3,a3,a5
    12e8:	16d65a63          	bge	a2,a3,145c <move_ball+0x208>
    12ec:	14000793          	li	a5,320
    12f0:	10f70c63          	beq	a4,a5,1408 <move_ball+0x1b4>
    12f4:	01c12083          	lw	ra,28(sp)
    12f8:	01812403          	lw	s0,24(sp)
    12fc:	01412483          	lw	s1,20(sp)
    1300:	01012903          	lw	s2,16(sp)
    1304:	00c12983          	lw	s3,12(sp)
    1308:	00812a03          	lw	s4,8(sp)
    130c:	02010113          	addi	sp,sp,32
    1310:	00008067          	ret
    1314:	00002437          	lui	s0,0x2
    1318:	08842603          	lw	a2,136(s0) # 2088 <paddle_height>
    131c:	000027b7          	lui	a5,0x2
    1320:	0987a683          	lw	a3,152(a5) # 2098 <player1_y>
    1324:	01f65793          	srli	a5,a2,0x1f
    1328:	00c787b3          	add	a5,a5,a2
    132c:	08c4a603          	lw	a2,140(s1)
    1330:	4017d793          	srai	a5,a5,0x1
    1334:	00d785b3          	add	a1,a5,a3
    1338:	06c5d263          	bge	a1,a2,139c <move_ball+0x148>
    133c:	fa071ce3          	bnez	a4,12f4 <move_ball+0xa0>
    1340:	00002737          	lui	a4,0x2
    1344:	0bc72783          	lw	a5,188(a4) # 20bc <player2_score>
    1348:	00178793          	addi	a5,a5,1
    134c:	0af72e23          	sw	a5,188(a4)
    1350:	08079c63          	bnez	a5,13e8 <move_ball+0x194>
    1354:	040007b7          	lui	a5,0x4000
    1358:	04000713          	li	a4,64
    135c:	04e7a823          	sw	a4,80(a5) # 4000050 <_stack_end+0x3efded0>
    1360:	ffd00793          	li	a5,-3
    1364:	0cfa2423          	sw	a5,200(s4)
    1368:	01c12083          	lw	ra,28(sp)
    136c:	01812403          	lw	s0,24(sp)
    1370:	0a000793          	li	a5,160
    1374:	08f92823          	sw	a5,144(s2)
    1378:	07800793          	li	a5,120
    137c:	0c09a223          	sw	zero,196(s3)
    1380:	08f4a623          	sw	a5,140(s1)
    1384:	01012903          	lw	s2,16(sp)
    1388:	01412483          	lw	s1,20(sp)
    138c:	00c12983          	lw	s3,12(sp)
    1390:	00812a03          	lw	s4,8(sp)
    1394:	02010113          	addi	sp,sp,32
    1398:	00008067          	ret
    139c:	40f686b3          	sub	a3,a3,a5
    13a0:	f8d64ee3          	blt	a2,a3,133c <move_ball+0xe8>
    13a4:	00200513          	li	a0,2
    13a8:	cd5ff0ef          	jal	107c <handle_collision>
    13ac:	09092703          	lw	a4,144(s2)
    13b0:	13200793          	li	a5,306
    13b4:	f0e7c6e3          	blt	a5,a4,12c0 <move_ball+0x6c>
    13b8:	f85ff06f          	j	133c <move_ball+0xe8>
    13bc:	02060063          	beqz	a2,13dc <move_ball+0x188>
    13c0:	00500513          	li	a0,5
    13c4:	0a068663          	beqz	a3,1470 <move_ball+0x21c>
    13c8:	05a00513          	li	a0,90
    13cc:	0a064263          	bltz	a2,1470 <move_ball+0x21c>
    13d0:	e2cff0ef          	jal	9fc <rotate_ball_vector_counter_clockwise>
    13d4:	09092703          	lw	a4,144(s2)
    13d8:	ed5ff06f          	j	12ac <move_ball+0x58>
    13dc:	40d006b3          	neg	a3,a3
    13e0:	0cda2423          	sw	a3,200(s4)
    13e4:	ec9ff06f          	j	12ac <move_ball+0x58>
    13e8:	00100713          	li	a4,1
    13ec:	10e78663          	beq	a5,a4,14f8 <move_ball+0x2a4>
    13f0:	00200713          	li	a4,2
    13f4:	08e79a63          	bne	a5,a4,1488 <move_ball+0x234>
    13f8:	040007b7          	lui	a5,0x4000
    13fc:	02400713          	li	a4,36
    1400:	04e7a823          	sw	a4,80(a5) # 4000050 <_stack_end+0x3efded0>
    1404:	f5dff06f          	j	1360 <move_ball+0x10c>
    1408:	00002737          	lui	a4,0x2
    140c:	0c072783          	lw	a5,192(a4) # 20c0 <player1_score>
    1410:	00178793          	addi	a5,a5,1
    1414:	0cf72023          	sw	a5,192(a4)
    1418:	0a079463          	bnez	a5,14c0 <move_ball+0x26c>
    141c:	040007b7          	lui	a5,0x4000
    1420:	04000713          	li	a4,64
    1424:	06e7a023          	sw	a4,96(a5) # 4000060 <_stack_end+0x3efdee0>
    1428:	01c12083          	lw	ra,28(sp)
    142c:	01812403          	lw	s0,24(sp)
    1430:	ffd00793          	li	a5,-3
    1434:	0cfa2423          	sw	a5,200(s4)
    1438:	0a000793          	li	a5,160
    143c:	0c09a223          	sw	zero,196(s3)
    1440:	08f92823          	sw	a5,144(s2)
    1444:	01412483          	lw	s1,20(sp)
    1448:	01012903          	lw	s2,16(sp)
    144c:	00c12983          	lw	s3,12(sp)
    1450:	00812a03          	lw	s4,8(sp)
    1454:	02010113          	addi	sp,sp,32
    1458:	00008067          	ret
    145c:	00300513          	li	a0,3
    1460:	c1dff0ef          	jal	107c <handle_collision>
    1464:	09092703          	lw	a4,144(s2)
    1468:	ec070ce3          	beqz	a4,1340 <move_ball+0xec>
    146c:	e81ff06f          	j	12ec <move_ball+0x98>
    1470:	d8cff0ef          	jal	9fc <rotate_ball_vector_counter_clockwise>
    1474:	0c49a783          	lw	a5,196(s3)
    1478:	09092703          	lw	a4,144(s2)
    147c:	40f007b3          	neg	a5,a5
    1480:	0cf9a223          	sw	a5,196(s3)
    1484:	e29ff06f          	j	12ac <move_ball+0x58>
    1488:	00300693          	li	a3,3
    148c:	00d79a63          	bne	a5,a3,14a0 <move_ball+0x24c>
    1490:	040007b7          	lui	a5,0x4000
    1494:	03000713          	li	a4,48
    1498:	04e7a823          	sw	a4,80(a5) # 4000050 <_stack_end+0x3efded0>
    149c:	ec5ff06f          	j	1360 <move_ball+0x10c>
    14a0:	00400693          	li	a3,4
    14a4:	06d78263          	beq	a5,a3,1508 <move_ball+0x2b4>
    14a8:	00500693          	li	a3,5
    14ac:	06d79e63          	bne	a5,a3,1528 <move_ball+0x2d4>
    14b0:	040007b7          	lui	a5,0x4000
    14b4:	01200713          	li	a4,18
    14b8:	04e7a823          	sw	a4,80(a5) # 4000050 <_stack_end+0x3efded0>
    14bc:	ea5ff06f          	j	1360 <move_ball+0x10c>
    14c0:	00100713          	li	a4,1
    14c4:	04e78a63          	beq	a5,a4,1518 <move_ball+0x2c4>
    14c8:	00200713          	li	a4,2
    14cc:	06e78863          	beq	a5,a4,153c <move_ball+0x2e8>
    14d0:	00300693          	li	a3,3
    14d4:	06d78c63          	beq	a5,a3,154c <move_ball+0x2f8>
    14d8:	00400693          	li	a3,4
    14dc:	08d78063          	beq	a5,a3,155c <move_ball+0x308>
    14e0:	00500693          	li	a3,5
    14e4:	08d79463          	bne	a5,a3,156c <move_ball+0x318>
    14e8:	040007b7          	lui	a5,0x4000
    14ec:	01200713          	li	a4,18
    14f0:	06e7a023          	sw	a4,96(a5) # 4000060 <_stack_end+0x3efdee0>
    14f4:	f35ff06f          	j	1428 <move_ball+0x1d4>
    14f8:	040007b7          	lui	a5,0x4000
    14fc:	07900713          	li	a4,121
    1500:	04e7a823          	sw	a4,80(a5) # 4000050 <_stack_end+0x3efded0>
    1504:	e5dff06f          	j	1360 <move_ball+0x10c>
    1508:	040007b7          	lui	a5,0x4000
    150c:	01900713          	li	a4,25
    1510:	04e7a823          	sw	a4,80(a5) # 4000050 <_stack_end+0x3efded0>
    1514:	e4dff06f          	j	1360 <move_ball+0x10c>
    1518:	040007b7          	lui	a5,0x4000
    151c:	07900713          	li	a4,121
    1520:	06e7a023          	sw	a4,96(a5) # 4000060 <_stack_end+0x3efdee0>
    1524:	f05ff06f          	j	1428 <move_ball+0x1d4>
    1528:	00600693          	li	a3,6
    152c:	08d79c63          	bne	a5,a3,15c4 <move_ball+0x370>
    1530:	040007b7          	lui	a5,0x4000
    1534:	04e7a823          	sw	a4,80(a5) # 4000050 <_stack_end+0x3efded0>
    1538:	e29ff06f          	j	1360 <move_ball+0x10c>
    153c:	040007b7          	lui	a5,0x4000
    1540:	02400713          	li	a4,36
    1544:	06e7a023          	sw	a4,96(a5) # 4000060 <_stack_end+0x3efdee0>
    1548:	ee1ff06f          	j	1428 <move_ball+0x1d4>
    154c:	040007b7          	lui	a5,0x4000
    1550:	03000713          	li	a4,48
    1554:	06e7a023          	sw	a4,96(a5) # 4000060 <_stack_end+0x3efdee0>
    1558:	ed1ff06f          	j	1428 <move_ball+0x1d4>
    155c:	040007b7          	lui	a5,0x4000
    1560:	01900713          	li	a4,25
    1564:	06e7a023          	sw	a4,96(a5) # 4000060 <_stack_end+0x3efdee0>
    1568:	ec1ff06f          	j	1428 <move_ball+0x1d4>
    156c:	00600693          	li	a3,6
    1570:	00d78e63          	beq	a5,a3,158c <move_ball+0x338>
    1574:	00700713          	li	a4,7
    1578:	02e79063          	bne	a5,a4,1598 <move_ball+0x344>
    157c:	040007b7          	lui	a5,0x4000
    1580:	07800713          	li	a4,120
    1584:	06e7a023          	sw	a4,96(a5) # 4000060 <_stack_end+0x3efdee0>
    1588:	ea1ff06f          	j	1428 <move_ball+0x1d4>
    158c:	040007b7          	lui	a5,0x4000
    1590:	06e7a023          	sw	a4,96(a5) # 4000060 <_stack_end+0x3efdee0>
    1594:	e95ff06f          	j	1428 <move_ball+0x1d4>
    1598:	00800713          	li	a4,8
    159c:	00e79863          	bne	a5,a4,15ac <move_ball+0x358>
    15a0:	040007b7          	lui	a5,0x4000
    15a4:	0607a023          	sw	zero,96(a5) # 4000060 <_stack_end+0x3efdee0>
    15a8:	e81ff06f          	j	1428 <move_ball+0x1d4>
    15ac:	00900713          	li	a4,9
    15b0:	e6e79ce3          	bne	a5,a4,1428 <move_ball+0x1d4>
    15b4:	040007b7          	lui	a5,0x4000
    15b8:	01000713          	li	a4,16
    15bc:	06e7a023          	sw	a4,96(a5) # 4000060 <_stack_end+0x3efdee0>
    15c0:	e69ff06f          	j	1428 <move_ball+0x1d4>
    15c4:	00700713          	li	a4,7
    15c8:	00e79a63          	bne	a5,a4,15dc <move_ball+0x388>
    15cc:	040007b7          	lui	a5,0x4000
    15d0:	07800713          	li	a4,120
    15d4:	04e7a823          	sw	a4,80(a5) # 4000050 <_stack_end+0x3efded0>
    15d8:	d89ff06f          	j	1360 <move_ball+0x10c>
    15dc:	00800713          	li	a4,8
    15e0:	00e79863          	bne	a5,a4,15f0 <move_ball+0x39c>
    15e4:	040007b7          	lui	a5,0x4000
    15e8:	0407a823          	sw	zero,80(a5) # 4000050 <_stack_end+0x3efded0>
    15ec:	d75ff06f          	j	1360 <move_ball+0x10c>
    15f0:	00900713          	li	a4,9
    15f4:	d6e796e3          	bne	a5,a4,1360 <move_ball+0x10c>
    15f8:	040007b7          	lui	a5,0x4000
    15fc:	01000713          	li	a4,16
    1600:	04e7a823          	sw	a4,80(a5) # 4000050 <_stack_end+0x3efded0>
    1604:	d5dff06f          	j	1360 <move_ball+0x10c>

00001608 <move_paddles>:
    1608:	000027b7          	lui	a5,0x2
    160c:	0887a683          	lw	a3,136(a5) # 2088 <paddle_height>
    1610:	00002637          	lui	a2,0x2
    1614:	09862703          	lw	a4,152(a2) # 2098 <player1_y>
    1618:	01f6d793          	srli	a5,a3,0x1f
    161c:	00d787b3          	add	a5,a5,a3
    1620:	4017d793          	srai	a5,a5,0x1
    1624:	40f706b3          	sub	a3,a4,a5
    1628:	40f007b3          	neg	a5,a5
    162c:	0ed05463          	blez	a3,1714 <move_paddles+0x10c>
    1630:	40f706b3          	sub	a3,a4,a5
    1634:	0ef00593          	li	a1,239
    1638:	06d5d063          	bge	a1,a3,1698 <move_paddles+0x90>
    163c:	0f000593          	li	a1,240
    1640:	00d5de63          	bge	a1,a3,165c <move_paddles+0x54>
    1644:	000026b7          	lui	a3,0x2
    1648:	0b46a583          	lw	a1,180(a3) # 20b4 <reverse_paddles1>
    164c:	000026b7          	lui	a3,0x2
    1650:	0d06a683          	lw	a3,208(a3) # 20d0 <player1_dy>
    1654:	12058063          	beqz	a1,1774 <move_paddles+0x16c>
    1658:	0cd04c63          	bgtz	a3,1730 <move_paddles+0x128>
    165c:	000026b7          	lui	a3,0x2
    1660:	0946a703          	lw	a4,148(a3) # 2094 <player2_y>
    1664:	00e78633          	add	a2,a5,a4
    1668:	04c05e63          	blez	a2,16c4 <move_paddles+0xbc>
    166c:	40f707b3          	sub	a5,a4,a5
    1670:	0ef00613          	li	a2,239
    1674:	06f64e63          	blt	a2,a5,16f0 <move_paddles+0xe8>
    1678:	000027b7          	lui	a5,0x2
    167c:	0b07a783          	lw	a5,176(a5) # 20b0 <reverse_paddles2>
    1680:	00002637          	lui	a2,0x2
    1684:	0cc62603          	lw	a2,204(a2) # 20cc <player2_dy>
    1688:	0a078a63          	beqz	a5,173c <move_paddles+0x134>
    168c:	40c70733          	sub	a4,a4,a2
    1690:	08e6aa23          	sw	a4,148(a3)
    1694:	00008067          	ret
    1698:	000026b7          	lui	a3,0x2
    169c:	0b46a683          	lw	a3,180(a3) # 20b4 <reverse_paddles1>
    16a0:	000025b7          	lui	a1,0x2
    16a4:	0d05a583          	lw	a1,208(a1) # 20d0 <player1_dy>
    16a8:	0a068063          	beqz	a3,1748 <move_paddles+0x140>
    16ac:	40b70733          	sub	a4,a4,a1
    16b0:	000026b7          	lui	a3,0x2
    16b4:	08e62c23          	sw	a4,152(a2)
    16b8:	0946a703          	lw	a4,148(a3) # 2094 <player2_y>
    16bc:	00e78633          	add	a2,a5,a4
    16c0:	fac046e3          	bgtz	a2,166c <move_paddles+0x64>
    16c4:	40f707b3          	sub	a5,a4,a5
    16c8:	02060463          	beqz	a2,16f0 <move_paddles+0xe8>
    16cc:	000027b7          	lui	a5,0x2
    16d0:	0b07a603          	lw	a2,176(a5) # 20b0 <reverse_paddles2>
    16d4:	000027b7          	lui	a5,0x2
    16d8:	0cc7a783          	lw	a5,204(a5) # 20cc <player2_dy>
    16dc:	08060463          	beqz	a2,1764 <move_paddles+0x15c>
    16e0:	0207d863          	bgez	a5,1710 <move_paddles+0x108>
    16e4:	40f70733          	sub	a4,a4,a5
    16e8:	08e6aa23          	sw	a4,148(a3)
    16ec:	00008067          	ret
    16f0:	0f000613          	li	a2,240
    16f4:	00f65e63          	bge	a2,a5,1710 <move_paddles+0x108>
    16f8:	000027b7          	lui	a5,0x2
    16fc:	0b07a603          	lw	a2,176(a5) # 20b0 <reverse_paddles2>
    1700:	000027b7          	lui	a5,0x2
    1704:	0cc7a783          	lw	a5,204(a5) # 20cc <player2_dy>
    1708:	06060a63          	beqz	a2,177c <move_paddles+0x174>
    170c:	fcf04ce3          	bgtz	a5,16e4 <move_paddles+0xdc>
    1710:	00008067          	ret
    1714:	06068863          	beqz	a3,1784 <move_paddles+0x17c>
    1718:	000026b7          	lui	a3,0x2
    171c:	0b46a583          	lw	a1,180(a3) # 20b4 <reverse_paddles1>
    1720:	000026b7          	lui	a3,0x2
    1724:	0d06a683          	lw	a3,208(a3) # 20d0 <player1_dy>
    1728:	02058663          	beqz	a1,1754 <move_paddles+0x14c>
    172c:	f206d8e3          	bgez	a3,165c <move_paddles+0x54>
    1730:	40d70733          	sub	a4,a4,a3
    1734:	08e62c23          	sw	a4,152(a2)
    1738:	f25ff06f          	j	165c <move_paddles+0x54>
    173c:	00c70733          	add	a4,a4,a2
    1740:	08e6aa23          	sw	a4,148(a3)
    1744:	00008067          	ret
    1748:	00b70733          	add	a4,a4,a1
    174c:	08e62c23          	sw	a4,152(a2)
    1750:	f0dff06f          	j	165c <move_paddles+0x54>
    1754:	f0d054e3          	blez	a3,165c <move_paddles+0x54>
    1758:	00d70733          	add	a4,a4,a3
    175c:	08e62c23          	sw	a4,152(a2)
    1760:	efdff06f          	j	165c <move_paddles+0x54>
    1764:	faf056e3          	blez	a5,1710 <move_paddles+0x108>
    1768:	00f70733          	add	a4,a4,a5
    176c:	08e6aa23          	sw	a4,148(a3)
    1770:	00008067          	ret
    1774:	ee06d4e3          	bgez	a3,165c <move_paddles+0x54>
    1778:	fe1ff06f          	j	1758 <move_paddles+0x150>
    177c:	fe07c6e3          	bltz	a5,1768 <move_paddles+0x160>
    1780:	00008067          	ret
    1784:	40f706b3          	sub	a3,a4,a5
    1788:	eb5ff06f          	j	163c <move_paddles+0x34>

0000178c <get_sw>:
    178c:	040007b7          	lui	a5,0x4000
    1790:	0107a503          	lw	a0,16(a5) # 4000010 <_stack_end+0x3efde90>
    1794:	00008067          	ret

00001798 <get_btn>:
    1798:	040007b7          	lui	a5,0x4000
    179c:	0d07a503          	lw	a0,208(a5) # 40000d0 <_stack_end+0x3efdf50>
    17a0:	00008067          	ret

000017a4 <get_digit>:
    17a4:	40b55533          	sra	a0,a0,a1
    17a8:	00157513          	andi	a0,a0,1
    17ac:	00008067          	ret

000017b0 <set_paddles_velocity>:
    17b0:	04000737          	lui	a4,0x4000
    17b4:	01072783          	lw	a5,16(a4) # 4000010 <_stack_end+0x3efde90>
    17b8:	0017f713          	andi	a4,a5,1
    17bc:	02071e63          	bnez	a4,17f8 <set_paddles_velocity+0x48>
    17c0:	01e79713          	slli	a4,a5,0x1e
    17c4:	41f75713          	srai	a4,a4,0x1f
    17c8:	ffb77713          	andi	a4,a4,-5
    17cc:	000026b7          	lui	a3,0x2
    17d0:	0ce6a623          	sw	a4,204(a3) # 20cc <player2_dy>
    17d4:	2007f713          	andi	a4,a5,512
    17d8:	1007f793          	andi	a5,a5,256
    17dc:	04070063          	beqz	a4,181c <set_paddles_velocity+0x6c>
    17e0:	0017b793          	seqz	a5,a5
    17e4:	40f007b3          	neg	a5,a5
    17e8:	0057f793          	andi	a5,a5,5
    17ec:	00002737          	lui	a4,0x2
    17f0:	0cf72823          	sw	a5,208(a4) # 20d0 <player1_dy>
    17f4:	00008067          	ret
    17f8:	0027f713          	andi	a4,a5,2
    17fc:	00173713          	seqz	a4,a4
    1800:	40e00733          	neg	a4,a4
    1804:	00577713          	andi	a4,a4,5
    1808:	000026b7          	lui	a3,0x2
    180c:	0ce6a623          	sw	a4,204(a3) # 20cc <player2_dy>
    1810:	2007f713          	andi	a4,a5,512
    1814:	1007f793          	andi	a5,a5,256
    1818:	fc0714e3          	bnez	a4,17e0 <set_paddles_velocity+0x30>
    181c:	00f037b3          	snez	a5,a5
    1820:	40f007b3          	neg	a5,a5
    1824:	ffb7f793          	andi	a5,a5,-5
    1828:	00002737          	lui	a4,0x2
    182c:	0cf72823          	sw	a5,208(a4) # 20d0 <player1_dy>
    1830:	00008067          	ret

00001834 <set_special_game_modes>:
    1834:	04000537          	lui	a0,0x4000
    1838:	01052783          	lw	a5,16(a0) # 4000010 <_stack_end+0x3efde90>
    183c:	00002537          	lui	a0,0x2
    1840:	0087f693          	andi	a3,a5,8
    1844:	0107f713          	andi	a4,a5,16
    1848:	0027d593          	srli	a1,a5,0x2
    184c:	0016b693          	seqz	a3,a3
    1850:	0077d613          	srli	a2,a5,0x7
    1854:	0015f593          	andi	a1,a1,1
    1858:	00173713          	seqz	a4,a4
    185c:	40d006b3          	neg	a3,a3
    1860:	00167613          	andi	a2,a2,1
    1864:	40e00733          	neg	a4,a4
    1868:	fe96f693          	andi	a3,a3,-23
    186c:	0ab52a23          	sw	a1,180(a0) # 20b4 <reverse_paddles1>
    1870:	000025b7          	lui	a1,0x2
    1874:	01e68693          	addi	a3,a3,30
    1878:	01577713          	andi	a4,a4,21
    187c:	0ac5a823          	sw	a2,176(a1) # 20b0 <reverse_paddles2>
    1880:	00002637          	lui	a2,0x2
    1884:	00470713          	addi	a4,a4,4
    1888:	0057d793          	srli	a5,a5,0x5
    188c:	08d62223          	sw	a3,132(a2) # 2084 <ball_size>
    1890:	000026b7          	lui	a3,0x2
    1894:	0017f793          	andi	a5,a5,1
    1898:	08e6a423          	sw	a4,136(a3) # 2088 <paddle_height>
    189c:	00002737          	lui	a4,0x2
    18a0:	0af72623          	sw	a5,172(a4) # 20ac <fast_ball>
    18a4:	00008067          	ret

000018a8 <printc>:
    18a8:	04000737          	lui	a4,0x4000
    18ac:	04470713          	addi	a4,a4,68 # 4000044 <_stack_end+0x3efdec4>
    18b0:	000106b7          	lui	a3,0x10
    18b4:	00072783          	lw	a5,0(a4)
    18b8:	fed7eee3          	bltu	a5,a3,18b4 <printc+0xc>
    18bc:	040007b7          	lui	a5,0x4000
    18c0:	04a7a023          	sw	a0,64(a5) # 4000040 <_stack_end+0x3efdec0>
    18c4:	00008067          	ret

000018c8 <print>:
    18c8:	00054603          	lbu	a2,0(a0)
    18cc:	02060863          	beqz	a2,18fc <print+0x34>
    18d0:	04000737          	lui	a4,0x4000
    18d4:	040005b7          	lui	a1,0x4000
    18d8:	04470713          	addi	a4,a4,68 # 4000044 <_stack_end+0x3efdec4>
    18dc:	000106b7          	lui	a3,0x10
    18e0:	04058593          	addi	a1,a1,64 # 4000040 <_stack_end+0x3efdec0>
    18e4:	00072783          	lw	a5,0(a4)
    18e8:	fed7eee3          	bltu	a5,a3,18e4 <print+0x1c>
    18ec:	00c5a023          	sw	a2,0(a1)
    18f0:	00154603          	lbu	a2,1(a0)
    18f4:	00150513          	addi	a0,a0,1
    18f8:	fe0616e3          	bnez	a2,18e4 <print+0x1c>
    18fc:	00008067          	ret

00001900 <print_dec>:
    1900:	3b9ad737          	lui	a4,0x3b9ad
    1904:	040006b7          	lui	a3,0x4000
    1908:	04000337          	lui	t1,0x4000
    190c:	00a00593          	li	a1,10
    1910:	00000793          	li	a5,0
    1914:	a0070713          	addi	a4,a4,-1536 # 3b9aca00 <_stack_end+0x3b8aa880>
    1918:	04468693          	addi	a3,a3,68 # 4000044 <_stack_end+0x3efdec4>
    191c:	00010637          	lui	a2,0x10
    1920:	04030313          	addi	t1,t1,64 # 4000040 <_stack_end+0x3efdec0>
    1924:	00a00893          	li	a7,10
    1928:	04e57063          	bgeu	a0,a4,1968 <print_dec+0x68>
    192c:	02079e63          	bnez	a5,1968 <print_dec+0x68>
    1930:	fff58593          	addi	a1,a1,-1
    1934:	02e57533          	remu	a0,a0,a4
    1938:	03175733          	divu	a4,a4,a7
    193c:	fe0596e3          	bnez	a1,1928 <print_dec+0x28>
    1940:	02079263          	bnez	a5,1964 <print_dec+0x64>
    1944:	04000737          	lui	a4,0x4000
    1948:	04470713          	addi	a4,a4,68 # 4000044 <_stack_end+0x3efdec4>
    194c:	000106b7          	lui	a3,0x10
    1950:	00072783          	lw	a5,0(a4)
    1954:	fed7eee3          	bltu	a5,a3,1950 <print_dec+0x50>
    1958:	040007b7          	lui	a5,0x4000
    195c:	03000713          	li	a4,48
    1960:	04e7a023          	sw	a4,64(a5) # 4000040 <_stack_end+0x3efdec0>
    1964:	00008067          	ret
    1968:	02e55833          	divu	a6,a0,a4
    196c:	03080813          	addi	a6,a6,48
    1970:	0ff87813          	zext.b	a6,a6
    1974:	0006a783          	lw	a5,0(a3) # 10000 <__global_pointer+0xd784>
    1978:	fec7eee3          	bltu	a5,a2,1974 <print_dec+0x74>
    197c:	01032023          	sw	a6,0(t1)
    1980:	00100793          	li	a5,1
    1984:	fadff06f          	j	1930 <print_dec+0x30>

00001988 <print_hex32>:
    1988:	04000737          	lui	a4,0x4000
    198c:	04470713          	addi	a4,a4,68 # 4000044 <_stack_end+0x3efdec4>
    1990:	000106b7          	lui	a3,0x10
    1994:	00072783          	lw	a5,0(a4)
    1998:	fed7eee3          	bltu	a5,a3,1994 <print_hex32+0xc>
    199c:	03000693          	li	a3,48
    19a0:	040007b7          	lui	a5,0x4000
    19a4:	04000737          	lui	a4,0x4000
    19a8:	04d7a023          	sw	a3,64(a5) # 4000040 <_stack_end+0x3efdec0>
    19ac:	04470713          	addi	a4,a4,68 # 4000044 <_stack_end+0x3efdec4>
    19b0:	000106b7          	lui	a3,0x10
    19b4:	00072783          	lw	a5,0(a4)
    19b8:	fed7eee3          	bltu	a5,a3,19b4 <print_hex32+0x2c>
    19bc:	04000837          	lui	a6,0x4000
    19c0:	04080813          	addi	a6,a6,64 # 4000040 <_stack_end+0x3efdec0>
    19c4:	04000737          	lui	a4,0x4000
    19c8:	07800793          	li	a5,120
    19cc:	00f82023          	sw	a5,0(a6)
    19d0:	01c00613          	li	a2,28
    19d4:	00900313          	li	t1,9
    19d8:	04470713          	addi	a4,a4,68 # 4000044 <_stack_end+0x3efdec4>
    19dc:	000106b7          	lui	a3,0x10
    19e0:	ffc00893          	li	a7,-4
    19e4:	00c557b3          	srl	a5,a0,a2
    19e8:	00f7f793          	andi	a5,a5,15
    19ec:	03778593          	addi	a1,a5,55
    19f0:	00f36463          	bltu	t1,a5,19f8 <print_hex32+0x70>
    19f4:	03078593          	addi	a1,a5,48
    19f8:	00072783          	lw	a5,0(a4)
    19fc:	fed7eee3          	bltu	a5,a3,19f8 <print_hex32+0x70>
    1a00:	00b82023          	sw	a1,0(a6)
    1a04:	ffc60613          	addi	a2,a2,-4 # fffc <__global_pointer+0xd780>
    1a08:	fd161ee3          	bne	a2,a7,19e4 <print_hex32+0x5c>
    1a0c:	00008067          	ret

00001a10 <handle_exception>:
    1a10:	00200793          	li	a5,2
    1a14:	18f80863          	beq	a6,a5,1ba4 <handle_exception+0x194>
    1a18:	00b00793          	li	a5,11
    1a1c:	12f80063          	beq	a6,a5,1b3c <handle_exception+0x12c>
    1a20:	04000737          	lui	a4,0x4000
    1a24:	14081463          	bnez	a6,1b6c <handle_exception+0x15c>
    1a28:	04000837          	lui	a6,0x4000
    1a2c:	00002637          	lui	a2,0x2
    1a30:	0f860613          	addi	a2,a2,248 # 20f8 <player1_dy+0x28>
    1a34:	00a00593          	li	a1,10
    1a38:	04470713          	addi	a4,a4,68 # 4000044 <_stack_end+0x3efdec4>
    1a3c:	000106b7          	lui	a3,0x10
    1a40:	04080813          	addi	a6,a6,64 # 4000040 <_stack_end+0x3efdec0>
    1a44:	00072783          	lw	a5,0(a4)
    1a48:	fed7eee3          	bltu	a5,a3,1a44 <handle_exception+0x34>
    1a4c:	00b82023          	sw	a1,0(a6)
    1a50:	00164583          	lbu	a1,1(a2)
    1a54:	00160613          	addi	a2,a2,1
    1a58:	fe0596e3          	bnez	a1,1a44 <handle_exception+0x34>
    1a5c:	04000737          	lui	a4,0x4000
    1a60:	04000837          	lui	a6,0x4000
    1a64:	00002637          	lui	a2,0x2
    1a68:	16c60613          	addi	a2,a2,364 # 216c <player1_dy+0x9c>
    1a6c:	04500593          	li	a1,69
    1a70:	04470713          	addi	a4,a4,68 # 4000044 <_stack_end+0x3efdec4>
    1a74:	000106b7          	lui	a3,0x10
    1a78:	04080813          	addi	a6,a6,64 # 4000040 <_stack_end+0x3efdec0>
    1a7c:	00072783          	lw	a5,0(a4)
    1a80:	fed7eee3          	bltu	a5,a3,1a7c <handle_exception+0x6c>
    1a84:	00b82023          	sw	a1,0(a6)
    1a88:	00164583          	lbu	a1,1(a2)
    1a8c:	00160613          	addi	a2,a2,1
    1a90:	fe0596e3          	bnez	a1,1a7c <handle_exception+0x6c>
    1a94:	04000737          	lui	a4,0x4000
    1a98:	04470713          	addi	a4,a4,68 # 4000044 <_stack_end+0x3efdec4>
    1a9c:	000106b7          	lui	a3,0x10
    1aa0:	00072783          	lw	a5,0(a4)
    1aa4:	fed7eee3          	bltu	a5,a3,1aa0 <handle_exception+0x90>
    1aa8:	03000693          	li	a3,48
    1aac:	040007b7          	lui	a5,0x4000
    1ab0:	04000737          	lui	a4,0x4000
    1ab4:	04d7a023          	sw	a3,64(a5) # 4000040 <_stack_end+0x3efdec0>
    1ab8:	04470713          	addi	a4,a4,68 # 4000044 <_stack_end+0x3efdec4>
    1abc:	000106b7          	lui	a3,0x10
    1ac0:	00072783          	lw	a5,0(a4)
    1ac4:	fed7eee3          	bltu	a5,a3,1ac0 <handle_exception+0xb0>
    1ac8:	04000837          	lui	a6,0x4000
    1acc:	04080813          	addi	a6,a6,64 # 4000040 <_stack_end+0x3efdec0>
    1ad0:	04000737          	lui	a4,0x4000
    1ad4:	07800793          	li	a5,120
    1ad8:	00f82023          	sw	a5,0(a6)
    1adc:	01c00613          	li	a2,28
    1ae0:	00900313          	li	t1,9
    1ae4:	04470713          	addi	a4,a4,68 # 4000044 <_stack_end+0x3efdec4>
    1ae8:	000106b7          	lui	a3,0x10
    1aec:	ffc00893          	li	a7,-4
    1af0:	00c557b3          	srl	a5,a0,a2
    1af4:	00f7f793          	andi	a5,a5,15
    1af8:	03778593          	addi	a1,a5,55
    1afc:	00f36463          	bltu	t1,a5,1b04 <handle_exception+0xf4>
    1b00:	03078593          	addi	a1,a5,48
    1b04:	00072783          	lw	a5,0(a4)
    1b08:	fed7eee3          	bltu	a5,a3,1b04 <handle_exception+0xf4>
    1b0c:	00b82023          	sw	a1,0(a6)
    1b10:	ffc60613          	addi	a2,a2,-4
    1b14:	fd161ee3          	bne	a2,a7,1af0 <handle_exception+0xe0>
    1b18:	04000737          	lui	a4,0x4000
    1b1c:	04470713          	addi	a4,a4,68 # 4000044 <_stack_end+0x3efdec4>
    1b20:	000106b7          	lui	a3,0x10
    1b24:	00072783          	lw	a5,0(a4)
    1b28:	fed7eee3          	bltu	a5,a3,1b24 <handle_exception+0x114>
    1b2c:	040007b7          	lui	a5,0x4000
    1b30:	00a00713          	li	a4,10
    1b34:	04e7a023          	sw	a4,64(a5) # 4000040 <_stack_end+0x3efdec0>
    1b38:	0000006f          	j	1b38 <handle_exception+0x128>
    1b3c:	00400793          	li	a5,4
    1b40:	0af88063          	beq	a7,a5,1be0 <handle_exception+0x1d0>
    1b44:	0d089a63          	bne	a7,a6,1c18 <handle_exception+0x208>
    1b48:	04000737          	lui	a4,0x4000
    1b4c:	04470713          	addi	a4,a4,68 # 4000044 <_stack_end+0x3efdec4>
    1b50:	000106b7          	lui	a3,0x10
    1b54:	00072783          	lw	a5,0(a4)
    1b58:	fed7eee3          	bltu	a5,a3,1b54 <handle_exception+0x144>
    1b5c:	040007b7          	lui	a5,0x4000
    1b60:	0ff57513          	zext.b	a0,a0
    1b64:	04a7a023          	sw	a0,64(a5) # 4000040 <_stack_end+0x3efdec0>
    1b68:	00008067          	ret
    1b6c:	04000837          	lui	a6,0x4000
    1b70:	00002637          	lui	a2,0x2
    1b74:	14c60613          	addi	a2,a2,332 # 214c <player1_dy+0x7c>
    1b78:	00a00593          	li	a1,10
    1b7c:	04470713          	addi	a4,a4,68
    1b80:	000106b7          	lui	a3,0x10
    1b84:	04080813          	addi	a6,a6,64 # 4000040 <_stack_end+0x3efdec0>
    1b88:	00072783          	lw	a5,0(a4)
    1b8c:	fed7eee3          	bltu	a5,a3,1b88 <handle_exception+0x178>
    1b90:	00b82023          	sw	a1,0(a6)
    1b94:	00164583          	lbu	a1,1(a2)
    1b98:	00160613          	addi	a2,a2,1
    1b9c:	fe0596e3          	bnez	a1,1b88 <handle_exception+0x178>
    1ba0:	ebdff06f          	j	1a5c <handle_exception+0x4c>
    1ba4:	04000737          	lui	a4,0x4000
    1ba8:	04000837          	lui	a6,0x4000
    1bac:	00002637          	lui	a2,0x2
    1bb0:	12860613          	addi	a2,a2,296 # 2128 <player1_dy+0x58>
    1bb4:	00a00593          	li	a1,10
    1bb8:	04470713          	addi	a4,a4,68 # 4000044 <_stack_end+0x3efdec4>
    1bbc:	000106b7          	lui	a3,0x10
    1bc0:	04080813          	addi	a6,a6,64 # 4000040 <_stack_end+0x3efdec0>
    1bc4:	00072783          	lw	a5,0(a4)
    1bc8:	fed7eee3          	bltu	a5,a3,1bc4 <handle_exception+0x1b4>
    1bcc:	00b82023          	sw	a1,0(a6)
    1bd0:	00164583          	lbu	a1,1(a2)
    1bd4:	00160613          	addi	a2,a2,1
    1bd8:	fe0596e3          	bnez	a1,1bc4 <handle_exception+0x1b4>
    1bdc:	e81ff06f          	j	1a5c <handle_exception+0x4c>
    1be0:	00054603          	lbu	a2,0(a0)
    1be4:	02060a63          	beqz	a2,1c18 <handle_exception+0x208>
    1be8:	04000737          	lui	a4,0x4000
    1bec:	040005b7          	lui	a1,0x4000
    1bf0:	04470713          	addi	a4,a4,68 # 4000044 <_stack_end+0x3efdec4>
    1bf4:	000106b7          	lui	a3,0x10
    1bf8:	04058593          	addi	a1,a1,64 # 4000040 <_stack_end+0x3efdec0>
    1bfc:	00072783          	lw	a5,0(a4)
    1c00:	fed7eee3          	bltu	a5,a3,1bfc <handle_exception+0x1ec>
    1c04:	00c5a023          	sw	a2,0(a1)
    1c08:	00154603          	lbu	a2,1(a0)
    1c0c:	00150513          	addi	a0,a0,1
    1c10:	fe0616e3          	bnez	a2,1bfc <handle_exception+0x1ec>
    1c14:	00008067          	ret
    1c18:	00008067          	ret

00001c1c <nextprime>:
    1c1c:	00200713          	li	a4,2
    1c20:	00050793          	mv	a5,a0
    1c24:	02a74063          	blt	a4,a0,1c44 <nextprime+0x28>
    1c28:	00100513          	li	a0,1
    1c2c:	00f05a63          	blez	a5,1c40 <nextprime+0x24>
    1c30:	fff78793          	addi	a5,a5,-1
    1c34:	00f037b3          	snez	a5,a5
    1c38:	00278513          	addi	a0,a5,2
    1c3c:	00008067          	ret
    1c40:	00008067          	ret
    1c44:	00150793          	addi	a5,a0,1
    1c48:	0017e513          	ori	a0,a5,1
    1c4c:	00300613          	li	a2,3
    1c50:	02c567b3          	rem	a5,a0,a2
    1c54:	40155693          	srai	a3,a0,0x1
    1c58:	02078263          	beqz	a5,1c7c <nextprime+0x60>
    1c5c:	00268693          	addi	a3,a3,2 # 10002 <__global_pointer+0xd786>
    1c60:	00300793          	li	a5,3
    1c64:	00c0006f          	j	1c70 <nextprime+0x54>
    1c68:	02f56733          	rem	a4,a0,a5
    1c6c:	00070863          	beqz	a4,1c7c <nextprime+0x60>
    1c70:	00178793          	addi	a5,a5,1
    1c74:	fef69ae3          	bne	a3,a5,1c68 <nextprime+0x4c>
    1c78:	00008067          	ret
    1c7c:	00250513          	addi	a0,a0,2
    1c80:	fd1ff06f          	j	1c50 <nextprime+0x34>

00001c84 <__subsf3>:
    1c84:	800007b7          	lui	a5,0x80000
    1c88:	00f5c5b3          	xor	a1,a1,a5

00001c8c <__addsf3>:
    1c8c:	80000337          	lui	t1,0x80000
    1c90:	00b543b3          	xor	t2,a0,a1
    1c94:	00657733          	and	a4,a0,t1
    1c98:	00151613          	slli	a2,a0,0x1
    1c9c:	00159693          	slli	a3,a1,0x1
    1ca0:	00d67863          	bgeu	a2,a3,1cb0 <__addsf3+0x24>
    1ca4:	0065f733          	and	a4,a1,t1
    1ca8:	00159613          	slli	a2,a1,0x1
    1cac:	00151693          	slli	a3,a0,0x1
    1cb0:	ff0007b7          	lui	a5,0xff000
    1cb4:	18f67463          	bgeu	a2,a5,1e3c <infnan>
    1cb8:	18f6f263          	bgeu	a3,a5,1e3c <infnan>
    1cbc:	14d60263          	beq	a2,a3,1e00 <equal>
    1cc0:	00761513          	slli	a0,a2,0x7
    1cc4:	00769593          	slli	a1,a3,0x7
    1cc8:	01865613          	srli	a2,a2,0x18
    1ccc:	0186d693          	srli	a3,a3,0x18
    1cd0:	10060463          	beqz	a2,1dd8 <both_zero_denormal>
    1cd4:	40d602b3          	sub	t0,a2,a3
    1cd8:	01a2b793          	sltiu	a5,t0,26
    1cdc:	10078863          	beqz	a5,1dec <return_greater>
    1ce0:	10068663          	beqz	a3,1dec <return_greater>
    1ce4:	fff60613          	addi	a2,a2,-1
    1ce8:	00656533          	or	a0,a0,t1
    1cec:	0065e5b3          	or	a1,a1,t1

00001cf0 <sum>:
    1cf0:	0055d7b3          	srl	a5,a1,t0
    1cf4:	00128293          	addi	t0,t0,1
    1cf8:	405002b3          	neg	t0,t0
    1cfc:	005595b3          	sll	a1,a1,t0
    1d00:	0403c863          	bltz	t2,1d50 <diff_sign>
    1d04:	00f50533          	add	a0,a0,a5

00001d08 <pos_or_zero>:
    1d08:	00f57c63          	bgeu	a0,a5,1d20 <adjust>
    1d0c:	00155513          	srli	a0,a0,0x1
    1d10:	00656533          	or	a0,a0,t1
    1d14:	00160613          	addi	a2,a2,1
    1d18:	0fe00793          	li	a5,254
    1d1c:	10f65c63          	bge	a2,a5,1e34 <inf>

00001d20 <adjust>:
    1d20:	0015d593          	srli	a1,a1,0x1
    1d24:	01851693          	slli	a3,a0,0x18
    1d28:	00b6e6b3          	or	a3,a3,a1
    1d2c:	00855513          	srli	a0,a0,0x8

00001d30 <rounding>:
    1d30:	0066e863          	bltu	a3,t1,1d40 <exp_sign_and_exit>
    1d34:	00150513          	addi	a0,a0,1
    1d38:	00669463          	bne	a3,t1,1d40 <exp_sign_and_exit>
    1d3c:	ffe57513          	andi	a0,a0,-2

00001d40 <exp_sign_and_exit>:
    1d40:	01761613          	slli	a2,a2,0x17
    1d44:	00c50533          	add	a0,a0,a2

00001d48 <sign_and_exit>:
    1d48:	00e56533          	or	a0,a0,a4

00001d4c <exit>:
    1d4c:	00008067          	ret

00001d50 <diff_sign>:
    1d50:	00b036b3          	snez	a3,a1
    1d54:	00d7e7b3          	or	a5,a5,a3
    1d58:	40f50533          	sub	a0,a0,a5
    1d5c:	fc0542e3          	bltz	a0,1d20 <adjust>

00001d60 <num_canc>:
    1d60:	00151513          	slli	a0,a0,0x1
    1d64:	00060793          	mv	a5,a2
    1d68:	fff60613          	addi	a2,a2,-1
    1d6c:	06078263          	beqz	a5,1dd0 <signed_zero>
    1d70:	fa6578e3          	bgeu	a0,t1,1d20 <adjust>
    1d74:	000807b7          	lui	a5,0x80
    1d78:	00f57663          	bgeu	a0,a5,1d84 <num_canc+0x24>
    1d7c:	00c51513          	slli	a0,a0,0xc
    1d80:	ff460613          	addi	a2,a2,-12
    1d84:	00679793          	slli	a5,a5,0x6
    1d88:	00f57663          	bgeu	a0,a5,1d94 <num_canc+0x34>
    1d8c:	00651513          	slli	a0,a0,0x6
    1d90:	ffa60613          	addi	a2,a2,-6
    1d94:	00379793          	slli	a5,a5,0x3
    1d98:	00f57663          	bgeu	a0,a5,1da4 <num_canc+0x44>
    1d9c:	00351513          	slli	a0,a0,0x3
    1da0:	ffd60613          	addi	a2,a2,-3
    1da4:	00179793          	slli	a5,a5,0x1
    1da8:	00f57663          	bgeu	a0,a5,1db4 <num_canc+0x54>
    1dac:	00151513          	slli	a0,a0,0x1
    1db0:	fff60613          	addi	a2,a2,-1
    1db4:	00179793          	slli	a5,a5,0x1
    1db8:	00f57663          	bgeu	a0,a5,1dc4 <num_canc+0x64>
    1dbc:	00151513          	slli	a0,a0,0x1
    1dc0:	fff60613          	addi	a2,a2,-1
    1dc4:	00755513          	srli	a0,a0,0x7
    1dc8:	fff60613          	addi	a2,a2,-1
    1dcc:	f6065ae3          	bgez	a2,1d40 <exp_sign_and_exit>

00001dd0 <signed_zero>:
    1dd0:	00070513          	mv	a0,a4
    1dd4:	00008067          	ret

00001dd8 <both_zero_denormal>:
    1dd8:	0063c3b3          	xor	t2,t2,t1
    1ddc:	00777533          	and	a0,a4,t2

00001de0 <zero_mantissa>:
    1de0:	01f55513          	srli	a0,a0,0x1f
    1de4:	01f51513          	slli	a0,a0,0x1f
    1de8:	00008067          	ret

00001dec <return_greater>:
    1dec:	00855513          	srli	a0,a0,0x8
    1df0:	01761613          	slli	a2,a2,0x17
    1df4:	00c56533          	or	a0,a0,a2
    1df8:	00e56533          	or	a0,a0,a4
    1dfc:	00008067          	ret

00001e00 <equal>:
    1e00:	00b50663          	beq	a0,a1,1e0c <equal_samesign>

00001e04 <zero>:
    1e04:	00000513          	li	a0,0
    1e08:	00008067          	ret

00001e0c <equal_samesign>:
    1e0c:	00c7f7b3          	and	a5,a5,a2
    1e10:	fc0788e3          	beqz	a5,1de0 <zero_mantissa>

00001e14 <equal_nodenormal>:
    1e14:	01865613          	srli	a2,a2,0x18
    1e18:	0fe63793          	sltiu	a5,a2,254
    1e1c:	00078863          	beqz	a5,1e2c <equal_nodenormal+0x18>
    1e20:	008007b7          	lui	a5,0x800
    1e24:	00f50533          	add	a0,a0,a5
    1e28:	00008067          	ret
    1e2c:	01f79793          	slli	a5,a5,0x1f
    1e30:	00a7f6b3          	and	a3,a5,a0

00001e34 <inf>:
    1e34:	7f800537          	lui	a0,0x7f800
    1e38:	f11ff06f          	j	1d48 <sign_and_exit>

00001e3c <infnan>:
    1e3c:	00c7e663          	bltu	a5,a2,1e48 <produce_nan>
    1e40:	fed61ae3          	bne	a2,a3,1e34 <inf>

00001e44 <inf_inf>:
    1e44:	f0b504e3          	beq	a0,a1,1d4c <exit>

00001e48 <produce_nan>:
    1e48:	7fc00537          	lui	a0,0x7fc00
    1e4c:	00008067          	ret

00001e50 <__fixsfsi>:
    1e50:	80000737          	lui	a4,0x80000
    1e54:	41f55793          	srai	a5,a0,0x1f
    1e58:	00151513          	slli	a0,a0,0x1
    1e5c:	01855593          	srli	a1,a0,0x18
    1e60:	f8158593          	addi	a1,a1,-127
    1e64:	0205ca63          	bltz	a1,1e98 <undflow>
    1e68:	40b005b3          	neg	a1,a1
    1e6c:	01f58593          	addi	a1,a1,31
    1e70:	00b05e63          	blez	a1,1e8c <ovflow>
    1e74:	00751513          	slli	a0,a0,0x7
    1e78:	00e56533          	or	a0,a0,a4
    1e7c:	00b55533          	srl	a0,a0,a1
    1e80:	00f54533          	xor	a0,a0,a5
    1e84:	40f50533          	sub	a0,a0,a5
    1e88:	00008067          	ret

00001e8c <ovflow>:
    1e8c:	fff70513          	addi	a0,a4,-1 # 7fffffff <_stack_end+0x7fefde7f>
    1e90:	00f54533          	xor	a0,a0,a5
    1e94:	00008067          	ret

00001e98 <undflow>:
    1e98:	00000513          	li	a0,0
    1e9c:	00008067          	ret

00001ea0 <__floatsisf>:
    1ea0:	04050a63          	beqz	a0,1ef4 <exit>
    1ea4:	41f55793          	srai	a5,a0,0x1f
    1ea8:	00f54533          	xor	a0,a0,a5
    1eac:	40f50533          	sub	a0,a0,a5
    1eb0:	01f79793          	slli	a5,a5,0x1f
    1eb4:	09d00593          	li	a1,157
    1eb8:	00054863          	bltz	a0,1ec8 <__floatsisf+0x28>
    1ebc:	fff58593          	addi	a1,a1,-1
    1ec0:	00151513          	slli	a0,a0,0x1
    1ec4:	fea04ce3          	bgtz	a0,1ebc <__floatsisf+0x1c>
    1ec8:	01851613          	slli	a2,a0,0x18
    1ecc:	00855513          	srli	a0,a0,0x8
    1ed0:	00065c63          	bgez	a2,1ee8 <__floatsisf+0x48>
    1ed4:	00150513          	addi	a0,a0,1 # 7fc00001 <_stack_end+0x7fafde81>
    1ed8:	00161613          	slli	a2,a2,0x1
    1edc:	00163613          	seqz	a2,a2
    1ee0:	fff64613          	not	a2,a2
    1ee4:	00c57533          	and	a0,a0,a2
    1ee8:	01759593          	slli	a1,a1,0x17
    1eec:	00b50533          	add	a0,a0,a1
    1ef0:	00f56533          	or	a0,a0,a5

00001ef4 <exit>:
    1ef4:	00008067          	ret

00001ef8 <__mulsf3>:
    1ef8:	80000737          	lui	a4,0x80000
    1efc:	00b547b3          	xor	a5,a0,a1
    1f00:	00f77733          	and	a4,a4,a5
    1f04:	0ff00793          	li	a5,255
    1f08:	01755613          	srli	a2,a0,0x17
    1f0c:	00f67633          	and	a2,a2,a5
    1f10:	0175d693          	srli	a3,a1,0x17
    1f14:	00f6f6b3          	and	a3,a3,a5
    1f18:	08f60c63          	beq	a2,a5,1fb0 <inf_nan>
    1f1c:	08f68a63          	beq	a3,a5,1fb0 <inf_nan>
    1f20:	08060463          	beqz	a2,1fa8 <append_zero>
    1f24:	08068263          	beqz	a3,1fa8 <append_zero>

00001f28 <normal_case>:
    1f28:	00d60633          	add	a2,a2,a3
    1f2c:	00951513          	slli	a0,a0,0x9
    1f30:	00959593          	slli	a1,a1,0x9
    1f34:	080006b7          	lui	a3,0x8000
    1f38:	00555513          	srli	a0,a0,0x5
    1f3c:	0055d593          	srli	a1,a1,0x5
    1f40:	00d56533          	or	a0,a0,a3
    1f44:	00d5e5b3          	or	a1,a1,a3
    1f48:	02b506b3          	mul	a3,a0,a1
    1f4c:	02b535b3          	mulhu	a1,a0,a1
    1f50:	00070513          	mv	a0,a4
    1f54:	008007b7          	lui	a5,0x800
    1f58:	00f5fc63          	bgeu	a1,a5,1f70 <normal_case+0x48>
    1f5c:	00159593          	slli	a1,a1,0x1
    1f60:	01f6d793          	srli	a5,a3,0x1f
    1f64:	00f5e5b3          	or	a1,a1,a5
    1f68:	00169693          	slli	a3,a3,0x1
    1f6c:	fff60613          	addi	a2,a2,-1
    1f70:	00b56533          	or	a0,a0,a1
    1f74:	f8160613          	addi	a2,a2,-127
    1f78:	0fe00793          	li	a5,254
    1f7c:	02f67263          	bgeu	a2,a5,1fa0 <und_ov_flow>
    1f80:	80000737          	lui	a4,0x80000
    1f84:	01761613          	slli	a2,a2,0x17
    1f88:	00c50533          	add	a0,a0,a2
    1f8c:	00e6e863          	bltu	a3,a4,1f9c <exit>
    1f90:	00150513          	addi	a0,a0,1
    1f94:	00e69463          	bne	a3,a4,1f9c <exit>
    1f98:	ffe57513          	andi	a0,a0,-2

00001f9c <exit>:
    1f9c:	00008067          	ret

00001fa0 <und_ov_flow>:
    1fa0:	02c04a63          	bgtz	a2,1fd4 <inf>
    1fa4:	0040006f          	j	1fa8 <append_zero>

00001fa8 <append_zero>:
    1fa8:	00070513          	mv	a0,a4
    1fac:	00008067          	ret

00001fb0 <inf_nan>:
    1fb0:	01861613          	slli	a2,a2,0x18
    1fb4:	01869693          	slli	a3,a3,0x18
    1fb8:	02060463          	beqz	a2,1fe0 <nan>
    1fbc:	02068263          	beqz	a3,1fe0 <nan>
    1fc0:	01879793          	slli	a5,a5,0x18
    1fc4:	00151693          	slli	a3,a0,0x1
    1fc8:	00d7ec63          	bltu	a5,a3,1fe0 <nan>
    1fcc:	00159693          	slli	a3,a1,0x1
    1fd0:	00d7e863          	bltu	a5,a3,1fe0 <nan>

00001fd4 <inf>:
    1fd4:	7f800537          	lui	a0,0x7f800
    1fd8:	00e56533          	or	a0,a0,a4
    1fdc:	00008067          	ret

00001fe0 <nan>:
    1fe0:	7fc00537          	lui	a0,0x7fc00
    1fe4:	00008067          	ret

Disassembly of section .data:

00001fe8 <welcome_msg>:
    1fe8:	3d3d                	.insn	2, 0x3d3d
    1fea:	3d3d                	.insn	2, 0x3d3d
    1fec:	3d3d                	.insn	2, 0x3d3d
    1fee:	3d3d                	.insn	2, 0x3d3d
    1ff0:	3d3d                	.insn	2, 0x3d3d
    1ff2:	3d3d                	.insn	2, 0x3d3d
    1ff4:	3d3d                	.insn	2, 0x3d3d
    1ff6:	3d3d                	.insn	2, 0x3d3d
    1ff8:	3d3d                	.insn	2, 0x3d3d
    1ffa:	3d3d                	.insn	2, 0x3d3d
    1ffc:	3d3d                	.insn	2, 0x3d3d
    1ffe:	3d3d                	.insn	2, 0x3d3d
    2000:	3d3d                	.insn	2, 0x3d3d
    2002:	3d3d                	.insn	2, 0x3d3d
    2004:	3d3d                	.insn	2, 0x3d3d
    2006:	3d3d                	.insn	2, 0x3d3d
    2008:	3d3d                	.insn	2, 0x3d3d
    200a:	3d3d                	.insn	2, 0x3d3d
    200c:	3d3d                	.insn	2, 0x3d3d
    200e:	3d3d                	.insn	2, 0x3d3d
    2010:	3d3d                	.insn	2, 0x3d3d
    2012:	3d3d                	.insn	2, 0x3d3d
    2014:	3d3d                	.insn	2, 0x3d3d
    2016:	3d3d                	.insn	2, 0x3d3d
    2018:	3d0a                	.insn	2, 0x3d0a
    201a:	3d3d                	.insn	2, 0x3d3d
    201c:	3d3d                	.insn	2, 0x3d3d
    201e:	5220                	.insn	2, 0x5220
    2020:	5349                	.insn	2, 0x5349
    2022:	20562d43          	.insn	4, 0x20562d43
    2026:	6f42                	.insn	2, 0x6f42
    2028:	552d746f          	jal	s0,d957a <__global_pointer+0xd6cfe>
    202c:	2070                	.insn	2, 0x2070
    202e:	7250                	.insn	2, 0x7250
    2030:	7365636f          	jal	t1,58766 <__global_pointer+0x55eea>
    2034:	6f4e2073          	csrs	0x6f4,t3
    2038:	6f432077          	.insn	4, 0x6f432077
    203c:	706d                	.insn	2, 0x706d
    203e:	656c                	.insn	2, 0x656c
    2040:	6574                	.insn	2, 0x6574
    2042:	3d20                	.insn	2, 0x3d20
    2044:	3d3d                	.insn	2, 0x3d3d
    2046:	3d3d                	.insn	2, 0x3d3d
    2048:	0a3d                	.insn	2, 0x0a3d
    204a:	3d3d                	.insn	2, 0x3d3d
    204c:	3d3d                	.insn	2, 0x3d3d
    204e:	3d3d                	.insn	2, 0x3d3d
    2050:	3d3d                	.insn	2, 0x3d3d
    2052:	3d3d                	.insn	2, 0x3d3d
    2054:	3d3d                	.insn	2, 0x3d3d
    2056:	3d3d                	.insn	2, 0x3d3d
    2058:	3d3d                	.insn	2, 0x3d3d
    205a:	3d3d                	.insn	2, 0x3d3d
    205c:	3d3d                	.insn	2, 0x3d3d
    205e:	3d3d                	.insn	2, 0x3d3d
    2060:	3d3d                	.insn	2, 0x3d3d
    2062:	3d3d                	.insn	2, 0x3d3d
    2064:	3d3d                	.insn	2, 0x3d3d
    2066:	3d3d                	.insn	2, 0x3d3d
    2068:	3d3d                	.insn	2, 0x3d3d
    206a:	3d3d                	.insn	2, 0x3d3d
    206c:	3d3d                	.insn	2, 0x3d3d
    206e:	3d3d                	.insn	2, 0x3d3d
    2070:	3d3d                	.insn	2, 0x3d3d
    2072:	3d3d                	.insn	2, 0x3d3d
    2074:	3d3d                	.insn	2, 0x3d3d
    2076:	3d3d                	.insn	2, 0x3d3d
    2078:	3d3d                	.insn	2, 0x3d3d
    207a:	000a                	.insn	2, 0x000a

0000207c <VGA_CTRL>:
    207c:	0100                	.insn	2, 0x0100
    207e:	0400                	.insn	2, 0x0400

00002080 <VGA>:
    2080:	0000                	.insn	2, 0x
    2082:	0800                	.insn	2, 0x0800

00002084 <ball_size>:
    2084:	00000007          	.insn	4, 0x0007

00002088 <paddle_height>:
    2088:	0019                	.insn	2, 0x0019
	...

0000208c <ball_y>:
    208c:	0078                	.insn	2, 0x0078
	...

00002090 <ball_x>:
    2090:	00a0                	.insn	2, 0x00a0
	...

00002094 <player2_y>:
    2094:	0078                	.insn	2, 0x0078
	...

00002098 <player1_y>:
    2098:	0078                	.insn	2, 0x0078
	...

Disassembly of section .srodata.cst4:

000020d4 <.srodata.cst4>:
    20d4:	0a3d                	.insn	2, 0x0a3d
    20d6:	24dd3f77          	.insn	4, 0x24dd3f77
    20da:	3e86                	.insn	2, 0x3e86
    20dc:	ed91                	.insn	2, 0xed91
    20de:	3f5c                	.insn	2, 0x3f5c
    20e0:	3f018937          	lui	s2,0x3f018
    20e4:	fdf4                	.insn	2, 0xfdf4
    20e6:	3f34                	.insn	2, 0x3f34
    20e8:	3efef9db          	.insn	4, 0x3efef9db
    20ec:	f3b6                	.insn	2, 0xf3b6
    20ee:	3f5d                	.insn	2, 0x3f5d
    20f0:	3e841893          	.insn	4, 0x3e841893
    20f4:	3f774bc7          	.insn	4, 0x3f774bc7

Disassembly of section .rodata.str1.4:

000020f8 <.rodata.str1.4>:
    20f8:	5b0a                	.insn	2, 0x5b0a
    20fa:	5845                	.insn	2, 0x5845
    20fc:	54504543          	.insn	4, 0x54504543
    2100:	4f49                	.insn	2, 0x4f49
    2102:	5d4e                	.insn	2, 0x5d4e
    2104:	4920                	.insn	2, 0x4920
    2106:	736e                	.insn	2, 0x736e
    2108:	7274                	.insn	2, 0x7274
    210a:	6375                	.insn	2, 0x6375
    210c:	6974                	.insn	2, 0x6974
    210e:	61206e6f          	jal	t3,8720 <__global_pointer+0x5ea4>
    2112:	6464                	.insn	2, 0x6464
    2114:	6572                	.insn	2, 0x6572
    2116:	6d207373          	csrrci	t1,0x6d2,0
    211a:	7369                	.insn	2, 0x7369
    211c:	6c61                	.insn	2, 0x6c61
    211e:	6769                	.insn	2, 0x6769
    2120:	6d6e                	.insn	2, 0x6d6e
    2122:	6e65                	.insn	2, 0x6e65
    2124:	2e74                	.insn	2, 0x2e74
    2126:	0020                	.insn	2, 0x0020
    2128:	5b0a                	.insn	2, 0x5b0a
    212a:	5845                	.insn	2, 0x5845
    212c:	54504543          	.insn	4, 0x54504543
    2130:	4f49                	.insn	2, 0x4f49
    2132:	5d4e                	.insn	2, 0x5d4e
    2134:	4920                	.insn	2, 0x4920
    2136:	6c6c                	.insn	2, 0x6c6c
    2138:	6765                	.insn	2, 0x6765
    213a:	6c61                	.insn	2, 0x6c61
    213c:	6920                	.insn	2, 0x6920
    213e:	736e                	.insn	2, 0x736e
    2140:	7274                	.insn	2, 0x7274
    2142:	6375                	.insn	2, 0x6375
    2144:	6974                	.insn	2, 0x6974
    2146:	202e6e6f          	jal	t3,e8348 <__global_pointer+0xe5acc>
    214a:	0000                	.insn	2, 0x
    214c:	5b0a                	.insn	2, 0x5b0a
    214e:	5845                	.insn	2, 0x5845
    2150:	54504543          	.insn	4, 0x54504543
    2154:	4f49                	.insn	2, 0x4f49
    2156:	5d4e                	.insn	2, 0x5d4e
    2158:	5520                	.insn	2, 0x5520
    215a:	6b6e                	.insn	2, 0x6b6e
    215c:	6f6e                	.insn	2, 0x6f6e
    215e:	65206e77          	.insn	4, 0x65206e77
    2162:	7272                	.insn	2, 0x7272
    2164:	202e726f          	jal	tp,e9366 <__global_pointer+0xe6aea>
    2168:	0000                	.insn	2, 0x
    216a:	0000                	.insn	2, 0x
    216c:	7845                	.insn	2, 0x7845
    216e:	74706563          	bltu	zero,t2,28b8 <__global_pointer+0x3c>
    2172:	6f69                	.insn	2, 0x6f69
    2174:	206e                	.insn	2, 0x206e
    2176:	6441                	.insn	2, 0x6441
    2178:	7264                	.insn	2, 0x7264
    217a:	7365                	.insn	2, 0x7365
    217c:	00203a73          	csrrc	s4,frm,zero

Disassembly of section .comment:

00000000 <.comment>:
   0:	3a434347          	.insn	4, 0x3a434347
   4:	2820                	.insn	2, 0x2820
   6:	2029                	.insn	2, 0x2029
   8:	3331                	.insn	2, 0x3331
   a:	322e                	.insn	2, 0x322e
   c:	302e                	.insn	2, 0x302e
	...

Disassembly of section .riscv.attributes:

00000000 <.riscv.attributes>:
   0:	3641                	.insn	2, 0x3641
   2:	0000                	.insn	2, 0x
   4:	7200                	.insn	2, 0x7200
   6:	7369                	.insn	2, 0x7369
   8:	01007663          	bgeu	zero,a6,14 <_isr_routine+0xc>
   c:	002c                	.insn	2, 0x002c
   e:	0000                	.insn	2, 0x
  10:	1004                	.insn	2, 0x1004
  12:	7205                	.insn	2, 0x7205
  14:	3376                	.insn	2, 0x3376
  16:	6932                	.insn	2, 0x6932
  18:	7032                	.insn	2, 0x7032
  1a:	5f31                	.insn	2, 0x5f31
  1c:	326d                	.insn	2, 0x326d
  1e:	3070                	.insn	2, 0x3070
  20:	7a5f 6369 7273      	.insn	6, 0x727363697a5f
  26:	7032                	.insn	2, 0x7032
  28:	5f30                	.insn	2, 0x5f30
  2a:	6d7a                	.insn	2, 0x6d7a
  2c:	756d                	.insn	2, 0x756d
  2e:	316c                	.insn	2, 0x316c
  30:	3070                	.insn	2, 0x3070
  32:	0800                	.insn	2, 0x0800
  34:	0a01                	.insn	2, 0x0a01
  36:	Address 0x36 is out of bounds.

