
main.elf:     file format elf32-littleriscv


Disassembly of section .text:

00000000 <_isr_handler>:
       0:	0080006f          	j	8 <_isr_routine>
       4:	1440006f          	j	148 <_start>

00000008 <_isr_routine>:
       8:	f8010113          	addi	sp,sp,-128
       c:	00112023          	sw	ra,0(sp)
      10:	00312423          	sw	gp,8(sp)
      14:	00412623          	sw	tp,12(sp)
      18:	00512823          	sw	t0,16(sp)
      1c:	00612a23          	sw	t1,20(sp)
      20:	00712c23          	sw	t2,24(sp)
      24:	00812e23          	sw	s0,28(sp)
      28:	02912023          	sw	s1,32(sp)
      2c:	02a12223          	sw	a0,36(sp)
      30:	02b12423          	sw	a1,40(sp)
      34:	02c12623          	sw	a2,44(sp)
      38:	02d12823          	sw	a3,48(sp)
      3c:	02e12a23          	sw	a4,52(sp)
      40:	02f12c23          	sw	a5,56(sp)
      44:	03012e23          	sw	a6,60(sp)
      48:	05112023          	sw	a7,64(sp)
      4c:	05212223          	sw	s2,68(sp)
      50:	05312423          	sw	s3,72(sp)
      54:	05412623          	sw	s4,76(sp)
      58:	05512823          	sw	s5,80(sp)
      5c:	05612a23          	sw	s6,84(sp)
      60:	05712c23          	sw	s7,88(sp)
      64:	05812e23          	sw	s8,92(sp)
      68:	07912023          	sw	s9,96(sp)
      6c:	07a12223          	sw	s10,100(sp)
      70:	07b12423          	sw	s11,104(sp)
      74:	07c12623          	sw	t3,108(sp)
      78:	07d12823          	sw	t4,112(sp)
      7c:	07e12a23          	sw	t5,116(sp)
      80:	07f12c23          	sw	t6,120(sp)
      84:	342022f3          	csrr	t0,mcause
      88:	80000337          	lui	t1,0x80000
      8c:	02536463          	bltu	t1,t0,b4 <external_irq>
      90:	00028833          	add	a6,t0,zero
      94:	00b00313          	li	t1,11
      98:	00628463          	beq	t0,t1,a0 <skip_init_args>
      9c:	34102573          	csrr	a0,mepc

000000a0 <skip_init_args>:
      a0:	1b8010ef          	jal	1258 <handle_exception>
      a4:	341022f3          	csrr	t0,mepc
      a8:	00428293          	addi	t0,t0,4
      ac:	34129073          	csrw	mepc,t0
      b0:	0180006f          	j	c8 <restore>

000000b4 <external_irq>:
      b4:	800002b7          	lui	t0,0x80000
      b8:	fff28293          	addi	t0,t0,-1 # 7fffffff <_stack_end+0x7fefd947>
      bc:	34202373          	csrr	t1,mcause
      c0:	0062f533          	and	a0,t0,t1
      c4:	408010ef          	jal	14cc <handle_interrupt>

000000c8 <restore>:
      c8:	00012083          	lw	ra,0(sp)
      cc:	00812183          	lw	gp,8(sp)
      d0:	00c12203          	lw	tp,12(sp)
      d4:	01012283          	lw	t0,16(sp)
      d8:	01412303          	lw	t1,20(sp)
      dc:	01812383          	lw	t2,24(sp)
      e0:	01c12403          	lw	s0,28(sp)
      e4:	02012483          	lw	s1,32(sp)
      e8:	02412503          	lw	a0,36(sp)
      ec:	02812583          	lw	a1,40(sp)
      f0:	02c12603          	lw	a2,44(sp)
      f4:	03012683          	lw	a3,48(sp)
      f8:	03412703          	lw	a4,52(sp)
      fc:	03812783          	lw	a5,56(sp)
     100:	03c12803          	lw	a6,60(sp)
     104:	04012883          	lw	a7,64(sp)
     108:	04412903          	lw	s2,68(sp)
     10c:	04812983          	lw	s3,72(sp)
     110:	04c12a03          	lw	s4,76(sp)
     114:	05012a83          	lw	s5,80(sp)
     118:	05412b03          	lw	s6,84(sp)
     11c:	05812b83          	lw	s7,88(sp)
     120:	05c12c03          	lw	s8,92(sp)
     124:	06012c83          	lw	s9,96(sp)
     128:	06412d03          	lw	s10,100(sp)
     12c:	06812d83          	lw	s11,104(sp)
     130:	06c12e03          	lw	t3,108(sp)
     134:	07012e83          	lw	t4,112(sp)
     138:	07412f03          	lw	t5,116(sp)
     13c:	07812f83          	lw	t6,120(sp)
     140:	08010113          	addi	sp,sp,128
     144:	30200073          	mret

00000148 <_start>:
     148:	00102117          	auipc	sp,0x102
     14c:	57010113          	addi	sp,sp,1392 # 1026b8 <_stack_end>
     150:	00003197          	auipc	gp,0x3
     154:	c4018193          	addi	gp,gp,-960 # 2d90 <__global_pointer>
     158:	00002517          	auipc	a0,0x2
     15c:	3a450513          	addi	a0,a0,932 # 24fc <welcome_msg>
     160:	00400893          	li	a7,4
     164:	00000073          	ecall
     168:	101010ef          	jal	1a68 <main>

0000016c <loop>:
     16c:	0000006f          	j	16c <loop>

00000170 <initialize_game_time>:
     170:	00008067          	ret

00000174 <initialize_game>:
     174:	00002737          	lui	a4,0x2
     178:	5c072a23          	sw	zero,1492(a4) # 25d4 <player2_dy>
     17c:	00002737          	lui	a4,0x2
     180:	fff00693          	li	a3,-1
     184:	5c072c23          	sw	zero,1496(a4) # 25d8 <player1_dy>
     188:	00002737          	lui	a4,0x2
     18c:	5cd72823          	sw	a3,1488(a4) # 25d0 <ball_dx>
     190:	00002737          	lui	a4,0x2
     194:	07800793          	li	a5,120
     198:	5c072623          	sw	zero,1484(a4) # 25cc <ball_dy>
     19c:	00002737          	lui	a4,0x2
     1a0:	5af72023          	sw	a5,1440(a4) # 25a0 <player2_y>
     1a4:	00002737          	lui	a4,0x2
     1a8:	5af72223          	sw	a5,1444(a4) # 25a4 <player1_y>
     1ac:	0a000693          	li	a3,160
     1b0:	00002737          	lui	a4,0x2
     1b4:	58d72e23          	sw	a3,1436(a4) # 259c <ball_x>
     1b8:	00002737          	lui	a4,0x2
     1bc:	58f72c23          	sw	a5,1432(a4) # 2598 <ball_y>
     1c0:	000027b7          	lui	a5,0x2
     1c4:	5c07a223          	sw	zero,1476(a5) # 25c4 <player2_score>
     1c8:	000027b7          	lui	a5,0x2
     1cc:	5c07a423          	sw	zero,1480(a5) # 25c8 <player1_score>
     1d0:	000027b7          	lui	a5,0x2
     1d4:	5a07ae23          	sw	zero,1468(a5) # 25bc <game_time>
     1d8:	00100713          	li	a4,1
     1dc:	000027b7          	lui	a5,0x2
     1e0:	5ce7a023          	sw	a4,1472(a5) # 25c0 <game_state>
     1e4:	00008067          	ret

000001e8 <increment_score>:
     1e8:	00100793          	li	a5,1
     1ec:	0ef50463          	beq	a0,a5,2d4 <increment_score+0xec>
     1f0:	00200793          	li	a5,2
     1f4:	0cf51e63          	bne	a0,a5,2d0 <increment_score+0xe8>
     1f8:	00002737          	lui	a4,0x2
     1fc:	5c472783          	lw	a5,1476(a4) # 25c4 <player2_score>
     200:	00178793          	addi	a5,a5,1
     204:	5cf72223          	sw	a5,1476(a4)
     208:	1c078463          	beqz	a5,3d0 <increment_score+0x1e8>
     20c:	00100693          	li	a3,1
     210:	00d79a63          	bne	a5,a3,224 <increment_score+0x3c>
     214:	040007b7          	lui	a5,0x4000
     218:	07900693          	li	a3,121
     21c:	06d7a023          	sw	a3,96(a5) # 4000060 <_stack_end+0x3efd9a8>
     220:	5c472783          	lw	a5,1476(a4)
     224:	00200693          	li	a3,2
     228:	00d79a63          	bne	a5,a3,23c <increment_score+0x54>
     22c:	040007b7          	lui	a5,0x4000
     230:	02400693          	li	a3,36
     234:	06d7a023          	sw	a3,96(a5) # 4000060 <_stack_end+0x3efd9a8>
     238:	5c472783          	lw	a5,1476(a4)
     23c:	00300693          	li	a3,3
     240:	00d79a63          	bne	a5,a3,254 <increment_score+0x6c>
     244:	040007b7          	lui	a5,0x4000
     248:	03000693          	li	a3,48
     24c:	06d7a023          	sw	a3,96(a5) # 4000060 <_stack_end+0x3efd9a8>
     250:	5c472783          	lw	a5,1476(a4)
     254:	00400693          	li	a3,4
     258:	00d79a63          	bne	a5,a3,26c <increment_score+0x84>
     25c:	040007b7          	lui	a5,0x4000
     260:	01900693          	li	a3,25
     264:	06d7a023          	sw	a3,96(a5) # 4000060 <_stack_end+0x3efd9a8>
     268:	5c472783          	lw	a5,1476(a4)
     26c:	00500693          	li	a3,5
     270:	00d79a63          	bne	a5,a3,284 <increment_score+0x9c>
     274:	040007b7          	lui	a5,0x4000
     278:	01200693          	li	a3,18
     27c:	06d7a023          	sw	a3,96(a5) # 4000060 <_stack_end+0x3efd9a8>
     280:	5c472783          	lw	a5,1476(a4)
     284:	00600693          	li	a3,6
     288:	00d79a63          	bne	a5,a3,29c <increment_score+0xb4>
     28c:	040007b7          	lui	a5,0x4000
     290:	00200693          	li	a3,2
     294:	06d7a023          	sw	a3,96(a5) # 4000060 <_stack_end+0x3efd9a8>
     298:	5c472783          	lw	a5,1476(a4)
     29c:	00700693          	li	a3,7
     2a0:	00d79a63          	bne	a5,a3,2b4 <increment_score+0xcc>
     2a4:	040007b7          	lui	a5,0x4000
     2a8:	07800693          	li	a3,120
     2ac:	06d7a023          	sw	a3,96(a5) # 4000060 <_stack_end+0x3efd9a8>
     2b0:	5c472783          	lw	a5,1476(a4)
     2b4:	00800693          	li	a3,8
     2b8:	00d79863          	bne	a5,a3,2c8 <increment_score+0xe0>
     2bc:	040006b7          	lui	a3,0x4000
     2c0:	0606a023          	sw	zero,96(a3) # 4000060 <_stack_end+0x3efd9a8>
     2c4:	5c472783          	lw	a5,1476(a4)
     2c8:	00900713          	li	a4,9
     2cc:	10e78c63          	beq	a5,a4,3e4 <increment_score+0x1fc>
     2d0:	00008067          	ret
     2d4:	00002737          	lui	a4,0x2
     2d8:	5c872783          	lw	a5,1480(a4) # 25c8 <player1_score>
     2dc:	00178793          	addi	a5,a5,1
     2e0:	5cf72423          	sw	a5,1480(a4)
     2e4:	0c078c63          	beqz	a5,3bc <increment_score+0x1d4>
     2e8:	00100693          	li	a3,1
     2ec:	00d79a63          	bne	a5,a3,300 <increment_score+0x118>
     2f0:	040007b7          	lui	a5,0x4000
     2f4:	07900693          	li	a3,121
     2f8:	04d7a823          	sw	a3,80(a5) # 4000050 <_stack_end+0x3efd998>
     2fc:	5c872783          	lw	a5,1480(a4)
     300:	00200693          	li	a3,2
     304:	00d79a63          	bne	a5,a3,318 <increment_score+0x130>
     308:	040007b7          	lui	a5,0x4000
     30c:	02400693          	li	a3,36
     310:	04d7a823          	sw	a3,80(a5) # 4000050 <_stack_end+0x3efd998>
     314:	5c872783          	lw	a5,1480(a4)
     318:	00300693          	li	a3,3
     31c:	00d79a63          	bne	a5,a3,330 <increment_score+0x148>
     320:	040007b7          	lui	a5,0x4000
     324:	03000693          	li	a3,48
     328:	04d7a823          	sw	a3,80(a5) # 4000050 <_stack_end+0x3efd998>
     32c:	5c872783          	lw	a5,1480(a4)
     330:	00400693          	li	a3,4
     334:	00d79a63          	bne	a5,a3,348 <increment_score+0x160>
     338:	040007b7          	lui	a5,0x4000
     33c:	01900693          	li	a3,25
     340:	04d7a823          	sw	a3,80(a5) # 4000050 <_stack_end+0x3efd998>
     344:	5c872783          	lw	a5,1480(a4)
     348:	00500693          	li	a3,5
     34c:	00d79a63          	bne	a5,a3,360 <increment_score+0x178>
     350:	040007b7          	lui	a5,0x4000
     354:	01200693          	li	a3,18
     358:	04d7a823          	sw	a3,80(a5) # 4000050 <_stack_end+0x3efd998>
     35c:	5c872783          	lw	a5,1480(a4)
     360:	00600693          	li	a3,6
     364:	00d79a63          	bne	a5,a3,378 <increment_score+0x190>
     368:	040007b7          	lui	a5,0x4000
     36c:	00200693          	li	a3,2
     370:	04d7a823          	sw	a3,80(a5) # 4000050 <_stack_end+0x3efd998>
     374:	5c872783          	lw	a5,1480(a4)
     378:	00700693          	li	a3,7
     37c:	00d79a63          	bne	a5,a3,390 <increment_score+0x1a8>
     380:	040007b7          	lui	a5,0x4000
     384:	07800693          	li	a3,120
     388:	04d7a823          	sw	a3,80(a5) # 4000050 <_stack_end+0x3efd998>
     38c:	5c872783          	lw	a5,1480(a4)
     390:	00800693          	li	a3,8
     394:	00d79863          	bne	a5,a3,3a4 <increment_score+0x1bc>
     398:	040006b7          	lui	a3,0x4000
     39c:	0406a823          	sw	zero,80(a3) # 4000050 <_stack_end+0x3efd998>
     3a0:	5c872783          	lw	a5,1480(a4)
     3a4:	00900713          	li	a4,9
     3a8:	f2e794e3          	bne	a5,a4,2d0 <increment_score+0xe8>
     3ac:	040007b7          	lui	a5,0x4000
     3b0:	01000713          	li	a4,16
     3b4:	04e7a823          	sw	a4,80(a5) # 4000050 <_stack_end+0x3efd998>
     3b8:	00008067          	ret
     3bc:	040007b7          	lui	a5,0x4000
     3c0:	04000693          	li	a3,64
     3c4:	04d7a823          	sw	a3,80(a5) # 4000050 <_stack_end+0x3efd998>
     3c8:	5c872783          	lw	a5,1480(a4)
     3cc:	f1dff06f          	j	2e8 <increment_score+0x100>
     3d0:	040007b7          	lui	a5,0x4000
     3d4:	04000693          	li	a3,64
     3d8:	06d7a023          	sw	a3,96(a5) # 4000060 <_stack_end+0x3efd9a8>
     3dc:	5c472783          	lw	a5,1476(a4)
     3e0:	e2dff06f          	j	20c <increment_score+0x24>
     3e4:	040007b7          	lui	a5,0x4000
     3e8:	01000713          	li	a4,16
     3ec:	06e7a023          	sw	a4,96(a5) # 4000060 <_stack_end+0x3efd9a8>
     3f0:	00008067          	ret

000003f4 <rotate_ball_vector_counter_clockwise>:
     3f4:	fd010113          	addi	sp,sp,-48
     3f8:	02112623          	sw	ra,44(sp)
     3fc:	02812423          	sw	s0,40(sp)
     400:	02912223          	sw	s1,36(sp)
     404:	03212023          	sw	s2,32(sp)
     408:	03c00793          	li	a5,60
     40c:	28f50463          	beq	a0,a5,694 <rotate_ball_vector_counter_clockwise+0x2a0>
     410:	0ca7c063          	blt	a5,a0,4d0 <rotate_ball_vector_counter_clockwise+0xdc>
     414:	01312e23          	sw	s3,28(sp)
     418:	01412c23          	sw	s4,24(sp)
     41c:	01512a23          	sw	s5,20(sp)
     420:	01e00793          	li	a5,30
     424:	0ef50463          	beq	a0,a5,50c <rotate_ball_vector_counter_clockwise+0x118>
     428:	02d00793          	li	a5,45
     42c:	1cf50e63          	beq	a0,a5,608 <rotate_ball_vector_counter_clockwise+0x214>
     430:	00f00793          	li	a5,15
     434:	0cf51263          	bne	a0,a5,4f8 <rotate_ball_vector_counter_clockwise+0x104>
     438:	000024b7          	lui	s1,0x2
     43c:	5cc4a503          	lw	a0,1484(s1) # 25cc <ball_dy>
     440:	01612823          	sw	s6,16(sp)
     444:	01712623          	sw	s7,12(sp)
     448:	00002937          	lui	s2,0x2
     44c:	6f9010ef          	jal	2344 <__floatsidf>
     450:	00050a13          	mv	s4,a0
     454:	5d092503          	lw	a0,1488(s2) # 25d0 <ball_dx>
     458:	00002b37          	lui	s6,0x2
     45c:	00058993          	mv	s3,a1
     460:	6e5010ef          	jal	2344 <__floatsidf>
     464:	5e0b2603          	lw	a2,1504(s6) # 25e0 <player1_dy+0x8>
     468:	5e4b2683          	lw	a3,1508(s6)
     46c:	00002bb7          	lui	s7,0x2
     470:	715010ef          	jal	2384 <__muldf3>
     474:	5e8ba603          	lw	a2,1512(s7) # 25e8 <player1_dy+0x10>
     478:	5ecba683          	lw	a3,1516(s7)
     47c:	00058413          	mv	s0,a1
     480:	00050a93          	mv	s5,a0
     484:	00098593          	mv	a1,s3
     488:	000a0513          	mv	a0,s4
     48c:	6f9010ef          	jal	2384 <__muldf3>
     490:	00050613          	mv	a2,a0
     494:	00058693          	mv	a3,a1
     498:	000a8513          	mv	a0,s5
     49c:	00040593          	mv	a1,s0
     4a0:	335010ef          	jal	1fd4 <__subdf3>
     4a4:	649010ef          	jal	22ec <__fixdfsi>
     4a8:	00050413          	mv	s0,a0
     4ac:	699010ef          	jal	2344 <__floatsidf>
     4b0:	5e8ba603          	lw	a2,1512(s7)
     4b4:	5ecba683          	lw	a3,1516(s7)
     4b8:	6cd010ef          	jal	2384 <__muldf3>
     4bc:	5e0b2603          	lw	a2,1504(s6)
     4c0:	5e4b2683          	lw	a3,1508(s6)
     4c4:	00050713          	mv	a4,a0
     4c8:	00058793          	mv	a5,a1
     4cc:	0d40006f          	j	5a0 <rotate_ball_vector_counter_clockwise+0x1ac>
     4d0:	04b00793          	li	a5,75
     4d4:	26f50663          	beq	a0,a5,740 <rotate_ball_vector_counter_clockwise+0x34c>
     4d8:	05a00793          	li	a5,90
     4dc:	1af51663          	bne	a0,a5,688 <rotate_ball_vector_counter_clockwise+0x294>
     4e0:	000024b7          	lui	s1,0x2
     4e4:	5cc4a503          	lw	a0,1484(s1) # 25cc <ball_dy>
     4e8:	00002937          	lui	s2,0x2
     4ec:	40a00533          	neg	a0,a0
     4f0:	00050413          	mv	s0,a0
     4f4:	0ec0006f          	j	5e0 <rotate_ball_vector_counter_clockwise+0x1ec>
     4f8:	01600793          	li	a5,22
     4fc:	f2a7dee3          	bge	a5,a0,438 <rotate_ball_vector_counter_clockwise+0x44>
     500:	fe950793          	addi	a5,a0,-23
     504:	00e00713          	li	a4,14
     508:	0ef76c63          	bltu	a4,a5,600 <rotate_ball_vector_counter_clockwise+0x20c>
     50c:	000024b7          	lui	s1,0x2
     510:	5cc4a503          	lw	a0,1484(s1) # 25cc <ball_dy>
     514:	01612823          	sw	s6,16(sp)
     518:	01712623          	sw	s7,12(sp)
     51c:	00002937          	lui	s2,0x2
     520:	625010ef          	jal	2344 <__floatsidf>
     524:	00050a13          	mv	s4,a0
     528:	5d092503          	lw	a0,1488(s2) # 25d0 <ball_dx>
     52c:	00002b37          	lui	s6,0x2
     530:	00058993          	mv	s3,a1
     534:	611010ef          	jal	2344 <__floatsidf>
     538:	5f0b2603          	lw	a2,1520(s6) # 25f0 <player1_dy+0x18>
     53c:	5f4b2683          	lw	a3,1524(s6)
     540:	00002bb7          	lui	s7,0x2
     544:	641010ef          	jal	2384 <__muldf3>
     548:	5f8ba603          	lw	a2,1528(s7) # 25f8 <player1_dy+0x20>
     54c:	5fcba683          	lw	a3,1532(s7)
     550:	00058413          	mv	s0,a1
     554:	00050a93          	mv	s5,a0
     558:	00098593          	mv	a1,s3
     55c:	000a0513          	mv	a0,s4
     560:	625010ef          	jal	2384 <__muldf3>
     564:	00050613          	mv	a2,a0
     568:	00058693          	mv	a3,a1
     56c:	000a8513          	mv	a0,s5
     570:	00040593          	mv	a1,s0
     574:	261010ef          	jal	1fd4 <__subdf3>
     578:	575010ef          	jal	22ec <__fixdfsi>
     57c:	00050413          	mv	s0,a0
     580:	5c5010ef          	jal	2344 <__floatsidf>
     584:	5f8ba603          	lw	a2,1528(s7)
     588:	5fcba683          	lw	a3,1532(s7)
     58c:	5f9010ef          	jal	2384 <__muldf3>
     590:	5f0b2603          	lw	a2,1520(s6)
     594:	5f4b2683          	lw	a3,1524(s6)
     598:	00050713          	mv	a4,a0
     59c:	00058793          	mv	a5,a1
     5a0:	000a0513          	mv	a0,s4
     5a4:	00098593          	mv	a1,s3
     5a8:	00070a13          	mv	s4,a4
     5ac:	00078993          	mv	s3,a5
     5b0:	5d5010ef          	jal	2384 <__muldf3>
     5b4:	00050613          	mv	a2,a0
     5b8:	00058693          	mv	a3,a1
     5bc:	000a0513          	mv	a0,s4
     5c0:	00098593          	mv	a1,s3
     5c4:	219010ef          	jal	1fdc <__adddf3>
     5c8:	525010ef          	jal	22ec <__fixdfsi>
     5cc:	01c12983          	lw	s3,28(sp)
     5d0:	01812a03          	lw	s4,24(sp)
     5d4:	01412a83          	lw	s5,20(sp)
     5d8:	01012b03          	lw	s6,16(sp)
     5dc:	00c12b83          	lw	s7,12(sp)
     5e0:	5c892823          	sw	s0,1488(s2)
     5e4:	02c12083          	lw	ra,44(sp)
     5e8:	02812403          	lw	s0,40(sp)
     5ec:	5ca4a623          	sw	a0,1484(s1)
     5f0:	02012903          	lw	s2,32(sp)
     5f4:	02412483          	lw	s1,36(sp)
     5f8:	03010113          	addi	sp,sp,48
     5fc:	00008067          	ret
     600:	fda50513          	addi	a0,a0,-38
     604:	08a76e63          	bltu	a4,a0,6a0 <rotate_ball_vector_counter_clockwise+0x2ac>
     608:	000024b7          	lui	s1,0x2
     60c:	5cc4a503          	lw	a0,1484(s1) # 25cc <ball_dy>
     610:	00002ab7          	lui	s5,0x2
     614:	00002937          	lui	s2,0x2
     618:	52d010ef          	jal	2344 <__floatsidf>
     61c:	600aa603          	lw	a2,1536(s5) # 2600 <player1_dy+0x28>
     620:	604aa683          	lw	a3,1540(s5)
     624:	561010ef          	jal	2384 <__muldf3>
     628:	00050a13          	mv	s4,a0
     62c:	5d092503          	lw	a0,1488(s2) # 25d0 <ball_dx>
     630:	00058993          	mv	s3,a1
     634:	511010ef          	jal	2344 <__floatsidf>
     638:	600aa603          	lw	a2,1536(s5)
     63c:	604aa683          	lw	a3,1540(s5)
     640:	545010ef          	jal	2384 <__muldf3>
     644:	000a0613          	mv	a2,s4
     648:	00098693          	mv	a3,s3
     64c:	189010ef          	jal	1fd4 <__subdf3>
     650:	49d010ef          	jal	22ec <__fixdfsi>
     654:	00050413          	mv	s0,a0
     658:	4ed010ef          	jal	2344 <__floatsidf>
     65c:	600aa603          	lw	a2,1536(s5)
     660:	604aa683          	lw	a3,1540(s5)
     664:	521010ef          	jal	2384 <__muldf3>
     668:	000a0613          	mv	a2,s4
     66c:	00098693          	mv	a3,s3
     670:	16d010ef          	jal	1fdc <__adddf3>
     674:	479010ef          	jal	22ec <__fixdfsi>
     678:	01c12983          	lw	s3,28(sp)
     67c:	01812a03          	lw	s4,24(sp)
     680:	01412a83          	lw	s5,20(sp)
     684:	f5dff06f          	j	5e0 <rotate_ball_vector_counter_clockwise+0x1ec>
     688:	fcb50793          	addi	a5,a0,-53
     68c:	00e00713          	li	a4,14
     690:	0af76463          	bltu	a4,a5,738 <rotate_ball_vector_counter_clockwise+0x344>
     694:	01312e23          	sw	s3,28(sp)
     698:	01412c23          	sw	s4,24(sp)
     69c:	01512a23          	sw	s5,20(sp)
     6a0:	000024b7          	lui	s1,0x2
     6a4:	5cc4a503          	lw	a0,1484(s1) # 25cc <ball_dy>
     6a8:	01612823          	sw	s6,16(sp)
     6ac:	01712623          	sw	s7,12(sp)
     6b0:	00002937          	lui	s2,0x2
     6b4:	491010ef          	jal	2344 <__floatsidf>
     6b8:	00050a13          	mv	s4,a0
     6bc:	5d092503          	lw	a0,1488(s2) # 25d0 <ball_dx>
     6c0:	00002b37          	lui	s6,0x2
     6c4:	00058993          	mv	s3,a1
     6c8:	47d010ef          	jal	2344 <__floatsidf>
     6cc:	608b2603          	lw	a2,1544(s6) # 2608 <player1_dy+0x30>
     6d0:	60cb2683          	lw	a3,1548(s6)
     6d4:	00002bb7          	lui	s7,0x2
     6d8:	4ad010ef          	jal	2384 <__muldf3>
     6dc:	610ba603          	lw	a2,1552(s7) # 2610 <player1_dy+0x38>
     6e0:	614ba683          	lw	a3,1556(s7)
     6e4:	00058413          	mv	s0,a1
     6e8:	00050a93          	mv	s5,a0
     6ec:	00098593          	mv	a1,s3
     6f0:	000a0513          	mv	a0,s4
     6f4:	491010ef          	jal	2384 <__muldf3>
     6f8:	00050613          	mv	a2,a0
     6fc:	00058693          	mv	a3,a1
     700:	000a8513          	mv	a0,s5
     704:	00040593          	mv	a1,s0
     708:	0cd010ef          	jal	1fd4 <__subdf3>
     70c:	3e1010ef          	jal	22ec <__fixdfsi>
     710:	00050413          	mv	s0,a0
     714:	431010ef          	jal	2344 <__floatsidf>
     718:	610ba603          	lw	a2,1552(s7)
     71c:	614ba683          	lw	a3,1556(s7)
     720:	465010ef          	jal	2384 <__muldf3>
     724:	608b2603          	lw	a2,1544(s6)
     728:	60cb2683          	lw	a3,1548(s6)
     72c:	00050713          	mv	a4,a0
     730:	00058793          	mv	a5,a1
     734:	e6dff06f          	j	5a0 <rotate_ball_vector_counter_clockwise+0x1ac>
     738:	fbc50513          	addi	a0,a0,-68
     73c:	daa762e3          	bltu	a4,a0,4e0 <rotate_ball_vector_counter_clockwise+0xec>
     740:	000024b7          	lui	s1,0x2
     744:	5cc4a503          	lw	a0,1484(s1) # 25cc <ball_dy>
     748:	01312e23          	sw	s3,28(sp)
     74c:	01412c23          	sw	s4,24(sp)
     750:	01512a23          	sw	s5,20(sp)
     754:	01612823          	sw	s6,16(sp)
     758:	01712623          	sw	s7,12(sp)
     75c:	00002937          	lui	s2,0x2
     760:	3e5010ef          	jal	2344 <__floatsidf>
     764:	00050a13          	mv	s4,a0
     768:	5d092503          	lw	a0,1488(s2) # 25d0 <ball_dx>
     76c:	00002b37          	lui	s6,0x2
     770:	00058993          	mv	s3,a1
     774:	3d1010ef          	jal	2344 <__floatsidf>
     778:	618b2603          	lw	a2,1560(s6) # 2618 <player1_dy+0x40>
     77c:	61cb2683          	lw	a3,1564(s6)
     780:	00002bb7          	lui	s7,0x2
     784:	401010ef          	jal	2384 <__muldf3>
     788:	620ba603          	lw	a2,1568(s7) # 2620 <player1_dy+0x48>
     78c:	624ba683          	lw	a3,1572(s7)
     790:	00058413          	mv	s0,a1
     794:	00050a93          	mv	s5,a0
     798:	00098593          	mv	a1,s3
     79c:	000a0513          	mv	a0,s4
     7a0:	3e5010ef          	jal	2384 <__muldf3>
     7a4:	00050613          	mv	a2,a0
     7a8:	00058693          	mv	a3,a1
     7ac:	000a8513          	mv	a0,s5
     7b0:	00040593          	mv	a1,s0
     7b4:	021010ef          	jal	1fd4 <__subdf3>
     7b8:	335010ef          	jal	22ec <__fixdfsi>
     7bc:	00050413          	mv	s0,a0
     7c0:	385010ef          	jal	2344 <__floatsidf>
     7c4:	620ba603          	lw	a2,1568(s7)
     7c8:	624ba683          	lw	a3,1572(s7)
     7cc:	3b9010ef          	jal	2384 <__muldf3>
     7d0:	618b2603          	lw	a2,1560(s6)
     7d4:	61cb2683          	lw	a3,1564(s6)
     7d8:	00050713          	mv	a4,a0
     7dc:	00058793          	mv	a5,a1
     7e0:	dc1ff06f          	j	5a0 <rotate_ball_vector_counter_clockwise+0x1ac>

000007e4 <rotate_ball_vector_clockwise>:
     7e4:	fd010113          	addi	sp,sp,-48
     7e8:	02112623          	sw	ra,44(sp)
     7ec:	02812423          	sw	s0,40(sp)
     7f0:	02912223          	sw	s1,36(sp)
     7f4:	03212023          	sw	s2,32(sp)
     7f8:	03c00793          	li	a5,60
     7fc:	28f50663          	beq	a0,a5,a88 <__heap_size+0x288>
     800:	0ca7c063          	blt	a5,a0,8c0 <__heap_size+0xc0>
     804:	01312e23          	sw	s3,28(sp)
     808:	01412c23          	sw	s4,24(sp)
     80c:	01512a23          	sw	s5,20(sp)
     810:	01e00793          	li	a5,30
     814:	0ef50263          	beq	a0,a5,8f8 <__heap_size+0xf8>
     818:	02d00793          	li	a5,45
     81c:	1cf50e63          	beq	a0,a5,9f8 <__heap_size+0x1f8>
     820:	00f00793          	li	a5,15
     824:	0cf51063          	bne	a0,a5,8e4 <__heap_size+0xe4>
     828:	000024b7          	lui	s1,0x2
     82c:	5cc4a503          	lw	a0,1484(s1) # 25cc <ball_dy>
     830:	01612823          	sw	s6,16(sp)
     834:	01712623          	sw	s7,12(sp)
     838:	00002937          	lui	s2,0x2
     83c:	309010ef          	jal	2344 <__floatsidf>
     840:	00050a13          	mv	s4,a0
     844:	5d092503          	lw	a0,1488(s2) # 25d0 <ball_dx>
     848:	00002b37          	lui	s6,0x2
     84c:	00058993          	mv	s3,a1
     850:	2f5010ef          	jal	2344 <__floatsidf>
     854:	5e0b2603          	lw	a2,1504(s6) # 25e0 <player1_dy+0x8>
     858:	5e4b2683          	lw	a3,1508(s6)
     85c:	00002bb7          	lui	s7,0x2
     860:	325010ef          	jal	2384 <__muldf3>
     864:	5e8ba603          	lw	a2,1512(s7) # 25e8 <player1_dy+0x10>
     868:	5ecba683          	lw	a3,1516(s7)
     86c:	00058413          	mv	s0,a1
     870:	00050a93          	mv	s5,a0
     874:	00098593          	mv	a1,s3
     878:	000a0513          	mv	a0,s4
     87c:	309010ef          	jal	2384 <__muldf3>
     880:	00050613          	mv	a2,a0
     884:	00058693          	mv	a3,a1
     888:	000a8513          	mv	a0,s5
     88c:	00040593          	mv	a1,s0
     890:	744010ef          	jal	1fd4 <__subdf3>
     894:	259010ef          	jal	22ec <__fixdfsi>
     898:	00050413          	mv	s0,a0
     89c:	2a9010ef          	jal	2344 <__floatsidf>
     8a0:	5e8ba603          	lw	a2,1512(s7)
     8a4:	5ecba683          	lw	a3,1516(s7)
     8a8:	2dd010ef          	jal	2384 <__muldf3>
     8ac:	5e0b2603          	lw	a2,1504(s6)
     8b0:	5e4b2683          	lw	a3,1508(s6)
     8b4:	00050713          	mv	a4,a0
     8b8:	00058793          	mv	a5,a1
     8bc:	0d00006f          	j	98c <__heap_size+0x18c>
     8c0:	04b00793          	li	a5,75
     8c4:	26f50863          	beq	a0,a5,b34 <__heap_size+0x334>
     8c8:	05a00793          	li	a5,90
     8cc:	1af51863          	bne	a0,a5,a7c <__heap_size+0x27c>
     8d0:	000024b7          	lui	s1,0x2
     8d4:	5cc4a783          	lw	a5,1484(s1) # 25cc <ball_dy>
     8d8:	00002937          	lui	s2,0x2
     8dc:	40f00433          	neg	s0,a5
     8e0:	0f00006f          	j	9d0 <__heap_size+0x1d0>
     8e4:	01600793          	li	a5,22
     8e8:	f4a7d0e3          	bge	a5,a0,828 <__heap_size+0x28>
     8ec:	fe950793          	addi	a5,a0,-23
     8f0:	00e00713          	li	a4,14
     8f4:	0ef76e63          	bltu	a4,a5,9f0 <__heap_size+0x1f0>
     8f8:	000024b7          	lui	s1,0x2
     8fc:	5cc4a503          	lw	a0,1484(s1) # 25cc <ball_dy>
     900:	01612823          	sw	s6,16(sp)
     904:	01712623          	sw	s7,12(sp)
     908:	00002937          	lui	s2,0x2
     90c:	239010ef          	jal	2344 <__floatsidf>
     910:	00050a13          	mv	s4,a0
     914:	5d092503          	lw	a0,1488(s2) # 25d0 <ball_dx>
     918:	00002b37          	lui	s6,0x2
     91c:	00058993          	mv	s3,a1
     920:	225010ef          	jal	2344 <__floatsidf>
     924:	5f0b2603          	lw	a2,1520(s6) # 25f0 <player1_dy+0x18>
     928:	5f4b2683          	lw	a3,1524(s6)
     92c:	00002bb7          	lui	s7,0x2
     930:	255010ef          	jal	2384 <__muldf3>
     934:	5f8ba603          	lw	a2,1528(s7) # 25f8 <player1_dy+0x20>
     938:	5fcba683          	lw	a3,1532(s7)
     93c:	00058413          	mv	s0,a1
     940:	00050a93          	mv	s5,a0
     944:	00098593          	mv	a1,s3
     948:	000a0513          	mv	a0,s4
     94c:	239010ef          	jal	2384 <__muldf3>
     950:	00050613          	mv	a2,a0
     954:	00058693          	mv	a3,a1
     958:	000a8513          	mv	a0,s5
     95c:	00040593          	mv	a1,s0
     960:	674010ef          	jal	1fd4 <__subdf3>
     964:	189010ef          	jal	22ec <__fixdfsi>
     968:	00050413          	mv	s0,a0
     96c:	1d9010ef          	jal	2344 <__floatsidf>
     970:	5f8ba603          	lw	a2,1528(s7)
     974:	5fcba683          	lw	a3,1532(s7)
     978:	20d010ef          	jal	2384 <__muldf3>
     97c:	5f0b2603          	lw	a2,1520(s6)
     980:	5f4b2683          	lw	a3,1524(s6)
     984:	00050713          	mv	a4,a0
     988:	00058793          	mv	a5,a1
     98c:	000a0513          	mv	a0,s4
     990:	00098593          	mv	a1,s3
     994:	00070a13          	mv	s4,a4
     998:	00078993          	mv	s3,a5
     99c:	1e9010ef          	jal	2384 <__muldf3>
     9a0:	00050613          	mv	a2,a0
     9a4:	00058693          	mv	a3,a1
     9a8:	000a0513          	mv	a0,s4
     9ac:	00098593          	mv	a1,s3
     9b0:	62c010ef          	jal	1fdc <__adddf3>
     9b4:	139010ef          	jal	22ec <__fixdfsi>
     9b8:	01c12983          	lw	s3,28(sp)
     9bc:	01812a03          	lw	s4,24(sp)
     9c0:	01412a83          	lw	s5,20(sp)
     9c4:	01012b03          	lw	s6,16(sp)
     9c8:	00c12b83          	lw	s7,12(sp)
     9cc:	40a007b3          	neg	a5,a0
     9d0:	5c892823          	sw	s0,1488(s2)
     9d4:	02c12083          	lw	ra,44(sp)
     9d8:	02812403          	lw	s0,40(sp)
     9dc:	5cf4a623          	sw	a5,1484(s1)
     9e0:	02012903          	lw	s2,32(sp)
     9e4:	02412483          	lw	s1,36(sp)
     9e8:	03010113          	addi	sp,sp,48
     9ec:	00008067          	ret
     9f0:	fda50513          	addi	a0,a0,-38
     9f4:	0aa76063          	bltu	a4,a0,a94 <__heap_size+0x294>
     9f8:	000024b7          	lui	s1,0x2
     9fc:	5cc4a503          	lw	a0,1484(s1) # 25cc <ball_dy>
     a00:	00002ab7          	lui	s5,0x2
     a04:	00002937          	lui	s2,0x2
     a08:	13d010ef          	jal	2344 <__floatsidf>
     a0c:	600aa603          	lw	a2,1536(s5) # 2600 <player1_dy+0x28>
     a10:	604aa683          	lw	a3,1540(s5)
     a14:	171010ef          	jal	2384 <__muldf3>
     a18:	00050a13          	mv	s4,a0
     a1c:	5d092503          	lw	a0,1488(s2) # 25d0 <ball_dx>
     a20:	00058993          	mv	s3,a1
     a24:	121010ef          	jal	2344 <__floatsidf>
     a28:	600aa603          	lw	a2,1536(s5)
     a2c:	604aa683          	lw	a3,1540(s5)
     a30:	155010ef          	jal	2384 <__muldf3>
     a34:	000a0613          	mv	a2,s4
     a38:	00098693          	mv	a3,s3
     a3c:	598010ef          	jal	1fd4 <__subdf3>
     a40:	0ad010ef          	jal	22ec <__fixdfsi>
     a44:	00050413          	mv	s0,a0
     a48:	0fd010ef          	jal	2344 <__floatsidf>
     a4c:	600aa603          	lw	a2,1536(s5)
     a50:	604aa683          	lw	a3,1540(s5)
     a54:	131010ef          	jal	2384 <__muldf3>
     a58:	000a0613          	mv	a2,s4
     a5c:	00098693          	mv	a3,s3
     a60:	57c010ef          	jal	1fdc <__adddf3>
     a64:	089010ef          	jal	22ec <__fixdfsi>
     a68:	40a007b3          	neg	a5,a0
     a6c:	01c12983          	lw	s3,28(sp)
     a70:	01812a03          	lw	s4,24(sp)
     a74:	01412a83          	lw	s5,20(sp)
     a78:	f59ff06f          	j	9d0 <__heap_size+0x1d0>
     a7c:	fcb50793          	addi	a5,a0,-53
     a80:	00e00713          	li	a4,14
     a84:	0af76463          	bltu	a4,a5,b2c <__heap_size+0x32c>
     a88:	01312e23          	sw	s3,28(sp)
     a8c:	01412c23          	sw	s4,24(sp)
     a90:	01512a23          	sw	s5,20(sp)
     a94:	000024b7          	lui	s1,0x2
     a98:	5cc4a503          	lw	a0,1484(s1) # 25cc <ball_dy>
     a9c:	01612823          	sw	s6,16(sp)
     aa0:	01712623          	sw	s7,12(sp)
     aa4:	00002937          	lui	s2,0x2
     aa8:	09d010ef          	jal	2344 <__floatsidf>
     aac:	00050a13          	mv	s4,a0
     ab0:	5d092503          	lw	a0,1488(s2) # 25d0 <ball_dx>
     ab4:	00002b37          	lui	s6,0x2
     ab8:	00058993          	mv	s3,a1
     abc:	089010ef          	jal	2344 <__floatsidf>
     ac0:	608b2603          	lw	a2,1544(s6) # 2608 <player1_dy+0x30>
     ac4:	60cb2683          	lw	a3,1548(s6)
     ac8:	00002bb7          	lui	s7,0x2
     acc:	0b9010ef          	jal	2384 <__muldf3>
     ad0:	610ba603          	lw	a2,1552(s7) # 2610 <player1_dy+0x38>
     ad4:	614ba683          	lw	a3,1556(s7)
     ad8:	00058413          	mv	s0,a1
     adc:	00050a93          	mv	s5,a0
     ae0:	00098593          	mv	a1,s3
     ae4:	000a0513          	mv	a0,s4
     ae8:	09d010ef          	jal	2384 <__muldf3>
     aec:	00050613          	mv	a2,a0
     af0:	00058693          	mv	a3,a1
     af4:	000a8513          	mv	a0,s5
     af8:	00040593          	mv	a1,s0
     afc:	4d8010ef          	jal	1fd4 <__subdf3>
     b00:	7ec010ef          	jal	22ec <__fixdfsi>
     b04:	00050413          	mv	s0,a0
     b08:	03d010ef          	jal	2344 <__floatsidf>
     b0c:	610ba603          	lw	a2,1552(s7)
     b10:	614ba683          	lw	a3,1556(s7)
     b14:	071010ef          	jal	2384 <__muldf3>
     b18:	608b2603          	lw	a2,1544(s6)
     b1c:	60cb2683          	lw	a3,1548(s6)
     b20:	00050713          	mv	a4,a0
     b24:	00058793          	mv	a5,a1
     b28:	e65ff06f          	j	98c <__heap_size+0x18c>
     b2c:	fbc50513          	addi	a0,a0,-68
     b30:	daa760e3          	bltu	a4,a0,8d0 <__heap_size+0xd0>
     b34:	000024b7          	lui	s1,0x2
     b38:	5cc4a503          	lw	a0,1484(s1) # 25cc <ball_dy>
     b3c:	01312e23          	sw	s3,28(sp)
     b40:	01412c23          	sw	s4,24(sp)
     b44:	01512a23          	sw	s5,20(sp)
     b48:	01612823          	sw	s6,16(sp)
     b4c:	01712623          	sw	s7,12(sp)
     b50:	00002937          	lui	s2,0x2
     b54:	7f0010ef          	jal	2344 <__floatsidf>
     b58:	00050a13          	mv	s4,a0
     b5c:	5d092503          	lw	a0,1488(s2) # 25d0 <ball_dx>
     b60:	00002b37          	lui	s6,0x2
     b64:	00058993          	mv	s3,a1
     b68:	7dc010ef          	jal	2344 <__floatsidf>
     b6c:	618b2603          	lw	a2,1560(s6) # 2618 <player1_dy+0x40>
     b70:	61cb2683          	lw	a3,1564(s6)
     b74:	00002bb7          	lui	s7,0x2
     b78:	00d010ef          	jal	2384 <__muldf3>
     b7c:	620ba603          	lw	a2,1568(s7) # 2620 <player1_dy+0x48>
     b80:	624ba683          	lw	a3,1572(s7)
     b84:	00058413          	mv	s0,a1
     b88:	00050a93          	mv	s5,a0
     b8c:	00098593          	mv	a1,s3
     b90:	000a0513          	mv	a0,s4
     b94:	7f0010ef          	jal	2384 <__muldf3>
     b98:	00050613          	mv	a2,a0
     b9c:	00058693          	mv	a3,a1
     ba0:	000a8513          	mv	a0,s5
     ba4:	00040593          	mv	a1,s0
     ba8:	42c010ef          	jal	1fd4 <__subdf3>
     bac:	740010ef          	jal	22ec <__fixdfsi>
     bb0:	00050413          	mv	s0,a0
     bb4:	790010ef          	jal	2344 <__floatsidf>
     bb8:	620ba603          	lw	a2,1568(s7)
     bbc:	624ba683          	lw	a3,1572(s7)
     bc0:	7c4010ef          	jal	2384 <__muldf3>
     bc4:	618b2603          	lw	a2,1560(s6)
     bc8:	61cb2683          	lw	a3,1564(s6)
     bcc:	00050713          	mv	a4,a0
     bd0:	00058793          	mv	a5,a1
     bd4:	db9ff06f          	j	98c <__heap_size+0x18c>

00000bd8 <handle_collision>:
     bd8:	ff010113          	addi	sp,sp,-16
     bdc:	00812423          	sw	s0,8(sp)
     be0:	00002437          	lui	s0,0x2
     be4:	5cc42683          	lw	a3,1484(s0) # 25cc <ball_dy>
     be8:	00002737          	lui	a4,0x2
     bec:	00112623          	sw	ra,12(sp)
     bf0:	5d072783          	lw	a5,1488(a4) # 25d0 <ball_dx>
     bf4:	00069e63          	bnez	a3,c10 <handle_collision+0x38>
     bf8:	00c12083          	lw	ra,12(sp)
     bfc:	00812403          	lw	s0,8(sp)
     c00:	40f007b3          	neg	a5,a5
     c04:	5cf72823          	sw	a5,1488(a4)
     c08:	01010113          	addi	sp,sp,16
     c0c:	00008067          	ret
     c10:	04078063          	beqz	a5,c50 <handle_collision+0x78>
     c14:	000027b7          	lui	a5,0x2
     c18:	5987a783          	lw	a5,1432(a5) # 2598 <ball_y>
     c1c:	0406cc63          	bltz	a3,c74 <handle_collision+0x9c>
     c20:	06078063          	beqz	a5,c80 <handle_collision+0xa8>
     c24:	0f000713          	li	a4,240
     c28:	04e78c63          	beq	a5,a4,c80 <handle_collision+0xa8>
     c2c:	05a00513          	li	a0,90
     c30:	fc4ff0ef          	jal	3f4 <rotate_ball_vector_counter_clockwise>
     c34:	5cc42783          	lw	a5,1484(s0)
     c38:	00c12083          	lw	ra,12(sp)
     c3c:	40f007b3          	neg	a5,a5
     c40:	5cf42623          	sw	a5,1484(s0)
     c44:	00812403          	lw	s0,8(sp)
     c48:	01010113          	addi	sp,sp,16
     c4c:	00008067          	ret
     c50:	00500513          	li	a0,5
     c54:	fa0ff0ef          	jal	3f4 <rotate_ball_vector_counter_clockwise>
     c58:	5cc42783          	lw	a5,1484(s0)
     c5c:	00c12083          	lw	ra,12(sp)
     c60:	40f007b3          	neg	a5,a5
     c64:	5cf42623          	sw	a5,1484(s0)
     c68:	00812403          	lw	s0,8(sp)
     c6c:	01010113          	addi	sp,sp,16
     c70:	00008067          	ret
     c74:	fa078ce3          	beqz	a5,c2c <handle_collision+0x54>
     c78:	0f000713          	li	a4,240
     c7c:	fae788e3          	beq	a5,a4,c2c <handle_collision+0x54>
     c80:	00812403          	lw	s0,8(sp)
     c84:	00c12083          	lw	ra,12(sp)
     c88:	05a00513          	li	a0,90
     c8c:	01010113          	addi	sp,sp,16
     c90:	f64ff06f          	j	3f4 <rotate_ball_vector_counter_clockwise>

00000c94 <move_ball>:
     c94:	000027b7          	lui	a5,0x2
     c98:	5b07a783          	lw	a5,1456(a5) # 25b0 <fast_ball>
     c9c:	fe010113          	addi	sp,sp,-32
     ca0:	00812c23          	sw	s0,24(sp)
     ca4:	00912a23          	sw	s1,20(sp)
     ca8:	01412423          	sw	s4,8(sp)
     cac:	01512223          	sw	s5,4(sp)
     cb0:	00002a37          	lui	s4,0x2
     cb4:	00002ab7          	lui	s5,0x2
     cb8:	00112e23          	sw	ra,28(sp)
     cbc:	01212823          	sw	s2,16(sp)
     cc0:	01312623          	sw	s3,12(sp)
     cc4:	5d0aa403          	lw	s0,1488(s5) # 25d0 <ball_dx>
     cc8:	5cca2483          	lw	s1,1484(s4) # 25cc <ball_dy>
     ccc:	04078463          	beqz	a5,d14 <move_ball+0x80>
     cd0:	00040513          	mv	a0,s0
     cd4:	00002937          	lui	s2,0x2
     cd8:	66c010ef          	jal	2344 <__floatsidf>
     cdc:	62892603          	lw	a2,1576(s2) # 2628 <player1_dy+0x50>
     ce0:	62c92683          	lw	a3,1580(s2)
     ce4:	2f8010ef          	jal	1fdc <__adddf3>
     ce8:	604010ef          	jal	22ec <__fixdfsi>
     cec:	00050413          	mv	s0,a0
     cf0:	00048513          	mv	a0,s1
     cf4:	5c8aa823          	sw	s0,1488(s5)
     cf8:	64c010ef          	jal	2344 <__floatsidf>
     cfc:	62892603          	lw	a2,1576(s2)
     d00:	62c92683          	lw	a3,1580(s2)
     d04:	2d8010ef          	jal	1fdc <__adddf3>
     d08:	5e4010ef          	jal	22ec <__fixdfsi>
     d0c:	00050493          	mv	s1,a0
     d10:	5caa2623          	sw	a0,1484(s4)
     d14:	00002937          	lui	s2,0x2
     d18:	000029b7          	lui	s3,0x2
     d1c:	59c92783          	lw	a5,1436(s2) # 259c <ball_x>
     d20:	5989a703          	lw	a4,1432(s3) # 2598 <ball_y>
     d24:	00f407b3          	add	a5,s0,a5
     d28:	00e48533          	add	a0,s1,a4
     d2c:	58f92e23          	sw	a5,1436(s2)
     d30:	58a9ac23          	sw	a0,1432(s3)
     d34:	06050463          	beqz	a0,d9c <move_ball+0x108>
     d38:	0f000713          	li	a4,240
     d3c:	06e50063          	beq	a0,a4,d9c <move_ball+0x108>
     d40:	00800713          	li	a4,8
     d44:	06e78463          	beq	a5,a4,dac <move_ball+0x118>
     d48:	13800713          	li	a4,312
     d4c:	0ae78063          	beq	a5,a4,dec <move_ball+0x158>
     d50:	0c079c63          	bnez	a5,e28 <move_ball+0x194>
     d54:	00200513          	li	a0,2
     d58:	c90ff0ef          	jal	1e8 <increment_score>
     d5c:	fff00793          	li	a5,-1
     d60:	5cfaa823          	sw	a5,1488(s5)
     d64:	0a000793          	li	a5,160
     d68:	58f92e23          	sw	a5,1436(s2)
     d6c:	07800793          	li	a5,120
     d70:	5c0a2623          	sw	zero,1484(s4)
     d74:	58f9ac23          	sw	a5,1432(s3)
     d78:	01c12083          	lw	ra,28(sp)
     d7c:	01812403          	lw	s0,24(sp)
     d80:	01412483          	lw	s1,20(sp)
     d84:	01012903          	lw	s2,16(sp)
     d88:	00c12983          	lw	s3,12(sp)
     d8c:	00812a03          	lw	s4,8(sp)
     d90:	00412a83          	lw	s5,4(sp)
     d94:	02010113          	addi	sp,sp,32
     d98:	00008067          	ret
     d9c:	e3dff0ef          	jal	bd8 <handle_collision>
     da0:	59c92783          	lw	a5,1436(s2)
     da4:	00800713          	li	a4,8
     da8:	fae790e3          	bne	a5,a4,d48 <move_ball+0xb4>
     dac:	000027b7          	lui	a5,0x2
     db0:	5947a683          	lw	a3,1428(a5) # 2594 <paddle_height>
     db4:	000027b7          	lui	a5,0x2
     db8:	5a47a703          	lw	a4,1444(a5) # 25a4 <player1_y>
     dbc:	01f6d793          	srli	a5,a3,0x1f
     dc0:	00d787b3          	add	a5,a5,a3
     dc4:	5989a683          	lw	a3,1432(s3)
     dc8:	4017d793          	srai	a5,a5,0x1
     dcc:	00e78633          	add	a2,a5,a4
     dd0:	00d60663          	beq	a2,a3,ddc <move_ball+0x148>
     dd4:	40f70733          	sub	a4,a4,a5
     dd8:	fae690e3          	bne	a3,a4,d78 <move_ball+0xe4>
     ddc:	dfdff0ef          	jal	bd8 <handle_collision>
     de0:	59c92783          	lw	a5,1436(s2)
     de4:	13800713          	li	a4,312
     de8:	f6e794e3          	bne	a5,a4,d50 <move_ball+0xbc>
     dec:	000027b7          	lui	a5,0x2
     df0:	5947a683          	lw	a3,1428(a5) # 2594 <paddle_height>
     df4:	000027b7          	lui	a5,0x2
     df8:	5a07a703          	lw	a4,1440(a5) # 25a0 <player2_y>
     dfc:	01f6d793          	srli	a5,a3,0x1f
     e00:	00d787b3          	add	a5,a5,a3
     e04:	5989a683          	lw	a3,1432(s3)
     e08:	4017d793          	srai	a5,a5,0x1
     e0c:	00e78633          	add	a2,a5,a4
     e10:	00d60663          	beq	a2,a3,e1c <move_ball+0x188>
     e14:	40f70733          	sub	a4,a4,a5
     e18:	f6e690e3          	bne	a3,a4,d78 <move_ball+0xe4>
     e1c:	dbdff0ef          	jal	bd8 <handle_collision>
     e20:	59c92783          	lw	a5,1436(s2)
     e24:	f20788e3          	beqz	a5,d54 <move_ball+0xc0>
     e28:	14000713          	li	a4,320
     e2c:	f4e796e3          	bne	a5,a4,d78 <move_ball+0xe4>
     e30:	00100513          	li	a0,1
     e34:	bb4ff0ef          	jal	1e8 <increment_score>
     e38:	fff00793          	li	a5,-1
     e3c:	5cfaa823          	sw	a5,1488(s5)
     e40:	0a000793          	li	a5,160
     e44:	5c0a2623          	sw	zero,1484(s4)
     e48:	58f92e23          	sw	a5,1436(s2)
     e4c:	f2dff06f          	j	d78 <move_ball+0xe4>

00000e50 <move_paddles>:
     e50:	000027b7          	lui	a5,0x2
     e54:	5947a683          	lw	a3,1428(a5) # 2594 <paddle_height>
     e58:	00002637          	lui	a2,0x2
     e5c:	5a462703          	lw	a4,1444(a2) # 25a4 <player1_y>
     e60:	01f6d793          	srli	a5,a3,0x1f
     e64:	00d787b3          	add	a5,a5,a3
     e68:	4017d793          	srai	a5,a5,0x1
     e6c:	40f706b3          	sub	a3,a4,a5
     e70:	40f007b3          	neg	a5,a5
     e74:	0ed05463          	blez	a3,f5c <move_paddles+0x10c>
     e78:	40f706b3          	sub	a3,a4,a5
     e7c:	0ef00593          	li	a1,239
     e80:	06d5d063          	bge	a1,a3,ee0 <move_paddles+0x90>
     e84:	0f000593          	li	a1,240
     e88:	00d5de63          	bge	a1,a3,ea4 <move_paddles+0x54>
     e8c:	000026b7          	lui	a3,0x2
     e90:	5b86a583          	lw	a1,1464(a3) # 25b8 <reverse_paddles1>
     e94:	000026b7          	lui	a3,0x2
     e98:	5d86a683          	lw	a3,1496(a3) # 25d8 <player1_dy>
     e9c:	12058063          	beqz	a1,fbc <move_paddles+0x16c>
     ea0:	0cd04c63          	bgtz	a3,f78 <move_paddles+0x128>
     ea4:	000026b7          	lui	a3,0x2
     ea8:	5a06a703          	lw	a4,1440(a3) # 25a0 <player2_y>
     eac:	00e78633          	add	a2,a5,a4
     eb0:	04c05e63          	blez	a2,f0c <move_paddles+0xbc>
     eb4:	40f707b3          	sub	a5,a4,a5
     eb8:	0ef00613          	li	a2,239
     ebc:	06f64e63          	blt	a2,a5,f38 <move_paddles+0xe8>
     ec0:	000027b7          	lui	a5,0x2
     ec4:	5b47a783          	lw	a5,1460(a5) # 25b4 <reverse_paddles2>
     ec8:	00002637          	lui	a2,0x2
     ecc:	5d462603          	lw	a2,1492(a2) # 25d4 <player2_dy>
     ed0:	0a078a63          	beqz	a5,f84 <move_paddles+0x134>
     ed4:	40c70733          	sub	a4,a4,a2
     ed8:	5ae6a023          	sw	a4,1440(a3)
     edc:	00008067          	ret
     ee0:	000026b7          	lui	a3,0x2
     ee4:	5b86a683          	lw	a3,1464(a3) # 25b8 <reverse_paddles1>
     ee8:	000025b7          	lui	a1,0x2
     eec:	5d85a583          	lw	a1,1496(a1) # 25d8 <player1_dy>
     ef0:	0a068063          	beqz	a3,f90 <move_paddles+0x140>
     ef4:	40b70733          	sub	a4,a4,a1
     ef8:	000026b7          	lui	a3,0x2
     efc:	5ae62223          	sw	a4,1444(a2)
     f00:	5a06a703          	lw	a4,1440(a3) # 25a0 <player2_y>
     f04:	00e78633          	add	a2,a5,a4
     f08:	fac046e3          	bgtz	a2,eb4 <move_paddles+0x64>
     f0c:	40f707b3          	sub	a5,a4,a5
     f10:	02060463          	beqz	a2,f38 <move_paddles+0xe8>
     f14:	000027b7          	lui	a5,0x2
     f18:	5b47a603          	lw	a2,1460(a5) # 25b4 <reverse_paddles2>
     f1c:	000027b7          	lui	a5,0x2
     f20:	5d47a783          	lw	a5,1492(a5) # 25d4 <player2_dy>
     f24:	08060463          	beqz	a2,fac <move_paddles+0x15c>
     f28:	0207d863          	bgez	a5,f58 <move_paddles+0x108>
     f2c:	40f70733          	sub	a4,a4,a5
     f30:	5ae6a023          	sw	a4,1440(a3)
     f34:	00008067          	ret
     f38:	0f000613          	li	a2,240
     f3c:	00f65e63          	bge	a2,a5,f58 <move_paddles+0x108>
     f40:	000027b7          	lui	a5,0x2
     f44:	5b47a603          	lw	a2,1460(a5) # 25b4 <reverse_paddles2>
     f48:	000027b7          	lui	a5,0x2
     f4c:	5d47a783          	lw	a5,1492(a5) # 25d4 <player2_dy>
     f50:	06060a63          	beqz	a2,fc4 <move_paddles+0x174>
     f54:	fcf04ce3          	bgtz	a5,f2c <move_paddles+0xdc>
     f58:	00008067          	ret
     f5c:	06068863          	beqz	a3,fcc <move_paddles+0x17c>
     f60:	000026b7          	lui	a3,0x2
     f64:	5b86a583          	lw	a1,1464(a3) # 25b8 <reverse_paddles1>
     f68:	000026b7          	lui	a3,0x2
     f6c:	5d86a683          	lw	a3,1496(a3) # 25d8 <player1_dy>
     f70:	02058663          	beqz	a1,f9c <move_paddles+0x14c>
     f74:	f206d8e3          	bgez	a3,ea4 <move_paddles+0x54>
     f78:	40d70733          	sub	a4,a4,a3
     f7c:	5ae62223          	sw	a4,1444(a2)
     f80:	f25ff06f          	j	ea4 <move_paddles+0x54>
     f84:	00c70733          	add	a4,a4,a2
     f88:	5ae6a023          	sw	a4,1440(a3)
     f8c:	00008067          	ret
     f90:	00b70733          	add	a4,a4,a1
     f94:	5ae62223          	sw	a4,1444(a2)
     f98:	f0dff06f          	j	ea4 <move_paddles+0x54>
     f9c:	f0d054e3          	blez	a3,ea4 <move_paddles+0x54>
     fa0:	00d70733          	add	a4,a4,a3
     fa4:	5ae62223          	sw	a4,1444(a2)
     fa8:	efdff06f          	j	ea4 <move_paddles+0x54>
     fac:	faf056e3          	blez	a5,f58 <move_paddles+0x108>
     fb0:	00f70733          	add	a4,a4,a5
     fb4:	5ae6a023          	sw	a4,1440(a3)
     fb8:	00008067          	ret
     fbc:	ee06d4e3          	bgez	a3,ea4 <move_paddles+0x54>
     fc0:	fe1ff06f          	j	fa0 <move_paddles+0x150>
     fc4:	fe07c6e3          	bltz	a5,fb0 <move_paddles+0x160>
     fc8:	00008067          	ret
     fcc:	40f706b3          	sub	a3,a4,a5
     fd0:	eb5ff06f          	j	e84 <move_paddles+0x34>

00000fd4 <get_sw>:
     fd4:	040007b7          	lui	a5,0x4000
     fd8:	0107a503          	lw	a0,16(a5) # 4000010 <_stack_end+0x3efd958>
     fdc:	00008067          	ret

00000fe0 <get_btn>:
     fe0:	040007b7          	lui	a5,0x4000
     fe4:	0d07a503          	lw	a0,208(a5) # 40000d0 <_stack_end+0x3efda18>
     fe8:	00008067          	ret

00000fec <get_digit>:
     fec:	40b55533          	sra	a0,a0,a1
     ff0:	00157513          	andi	a0,a0,1
     ff4:	00008067          	ret

00000ff8 <set_paddles_velocity>:
     ff8:	04000737          	lui	a4,0x4000
     ffc:	01072783          	lw	a5,16(a4) # 4000010 <_stack_end+0x3efd958>
    1000:	0017f713          	andi	a4,a5,1
    1004:	02071e63          	bnez	a4,1040 <set_paddles_velocity+0x48>
    1008:	01e79713          	slli	a4,a5,0x1e
    100c:	41f75713          	srai	a4,a4,0x1f
    1010:	ffb77713          	andi	a4,a4,-5
    1014:	000026b7          	lui	a3,0x2
    1018:	5ce6aa23          	sw	a4,1492(a3) # 25d4 <player2_dy>
    101c:	2007f713          	andi	a4,a5,512
    1020:	1007f793          	andi	a5,a5,256
    1024:	04070063          	beqz	a4,1064 <set_paddles_velocity+0x6c>
    1028:	0017b793          	seqz	a5,a5
    102c:	40f007b3          	neg	a5,a5
    1030:	0057f793          	andi	a5,a5,5
    1034:	00002737          	lui	a4,0x2
    1038:	5cf72c23          	sw	a5,1496(a4) # 25d8 <player1_dy>
    103c:	00008067          	ret
    1040:	0027f713          	andi	a4,a5,2
    1044:	00173713          	seqz	a4,a4
    1048:	40e00733          	neg	a4,a4
    104c:	00577713          	andi	a4,a4,5
    1050:	000026b7          	lui	a3,0x2
    1054:	5ce6aa23          	sw	a4,1492(a3) # 25d4 <player2_dy>
    1058:	2007f713          	andi	a4,a5,512
    105c:	1007f793          	andi	a5,a5,256
    1060:	fc0714e3          	bnez	a4,1028 <set_paddles_velocity+0x30>
    1064:	00f037b3          	snez	a5,a5
    1068:	40f007b3          	neg	a5,a5
    106c:	ffb7f793          	andi	a5,a5,-5
    1070:	00002737          	lui	a4,0x2
    1074:	5cf72c23          	sw	a5,1496(a4) # 25d8 <player1_dy>
    1078:	00008067          	ret

0000107c <set_special_game_modes>:
    107c:	04000537          	lui	a0,0x4000
    1080:	01052783          	lw	a5,16(a0) # 4000010 <_stack_end+0x3efd958>
    1084:	00002537          	lui	a0,0x2
    1088:	0087f693          	andi	a3,a5,8
    108c:	0107f713          	andi	a4,a5,16
    1090:	0027d593          	srli	a1,a5,0x2
    1094:	0016b693          	seqz	a3,a3
    1098:	0077d613          	srli	a2,a5,0x7
    109c:	0015f593          	andi	a1,a1,1
    10a0:	00173713          	seqz	a4,a4
    10a4:	40d006b3          	neg	a3,a3
    10a8:	00167613          	andi	a2,a2,1
    10ac:	40e00733          	neg	a4,a4
    10b0:	fe36f693          	andi	a3,a3,-29
    10b4:	5ab52c23          	sw	a1,1464(a0) # 25b8 <reverse_paddles1>
    10b8:	000025b7          	lui	a1,0x2
    10bc:	01e68693          	addi	a3,a3,30
    10c0:	00677713          	andi	a4,a4,6
    10c4:	5ac5aa23          	sw	a2,1460(a1) # 25b4 <reverse_paddles2>
    10c8:	00002637          	lui	a2,0x2
    10cc:	00270713          	addi	a4,a4,2
    10d0:	0057d793          	srli	a5,a5,0x5
    10d4:	58d62823          	sw	a3,1424(a2) # 2590 <ball_size>
    10d8:	000026b7          	lui	a3,0x2
    10dc:	0017f793          	andi	a5,a5,1
    10e0:	58e6aa23          	sw	a4,1428(a3) # 2594 <paddle_height>
    10e4:	00002737          	lui	a4,0x2
    10e8:	5af72823          	sw	a5,1456(a4) # 25b0 <fast_ball>
    10ec:	00008067          	ret

000010f0 <printc>:
    10f0:	04000737          	lui	a4,0x4000
    10f4:	04470713          	addi	a4,a4,68 # 4000044 <_stack_end+0x3efd98c>
    10f8:	000106b7          	lui	a3,0x10
    10fc:	00072783          	lw	a5,0(a4)
    1100:	fed7eee3          	bltu	a5,a3,10fc <printc+0xc>
    1104:	040007b7          	lui	a5,0x4000
    1108:	04a7a023          	sw	a0,64(a5) # 4000040 <_stack_end+0x3efd988>
    110c:	00008067          	ret

00001110 <print>:
    1110:	00054603          	lbu	a2,0(a0)
    1114:	02060863          	beqz	a2,1144 <print+0x34>
    1118:	04000737          	lui	a4,0x4000
    111c:	040005b7          	lui	a1,0x4000
    1120:	04470713          	addi	a4,a4,68 # 4000044 <_stack_end+0x3efd98c>
    1124:	000106b7          	lui	a3,0x10
    1128:	04058593          	addi	a1,a1,64 # 4000040 <_stack_end+0x3efd988>
    112c:	00072783          	lw	a5,0(a4)
    1130:	fed7eee3          	bltu	a5,a3,112c <print+0x1c>
    1134:	00c5a023          	sw	a2,0(a1)
    1138:	00154603          	lbu	a2,1(a0)
    113c:	00150513          	addi	a0,a0,1
    1140:	fe0616e3          	bnez	a2,112c <print+0x1c>
    1144:	00008067          	ret

00001148 <print_dec>:
    1148:	3b9ad737          	lui	a4,0x3b9ad
    114c:	040006b7          	lui	a3,0x4000
    1150:	04000337          	lui	t1,0x4000
    1154:	00a00593          	li	a1,10
    1158:	00000793          	li	a5,0
    115c:	a0070713          	addi	a4,a4,-1536 # 3b9aca00 <_stack_end+0x3b8aa348>
    1160:	04468693          	addi	a3,a3,68 # 4000044 <_stack_end+0x3efd98c>
    1164:	00010637          	lui	a2,0x10
    1168:	04030313          	addi	t1,t1,64 # 4000040 <_stack_end+0x3efd988>
    116c:	00a00893          	li	a7,10
    1170:	04e57063          	bgeu	a0,a4,11b0 <print_dec+0x68>
    1174:	02079e63          	bnez	a5,11b0 <print_dec+0x68>
    1178:	fff58593          	addi	a1,a1,-1
    117c:	02e57533          	remu	a0,a0,a4
    1180:	03175733          	divu	a4,a4,a7
    1184:	fe0596e3          	bnez	a1,1170 <print_dec+0x28>
    1188:	02079263          	bnez	a5,11ac <print_dec+0x64>
    118c:	04000737          	lui	a4,0x4000
    1190:	04470713          	addi	a4,a4,68 # 4000044 <_stack_end+0x3efd98c>
    1194:	000106b7          	lui	a3,0x10
    1198:	00072783          	lw	a5,0(a4)
    119c:	fed7eee3          	bltu	a5,a3,1198 <print_dec+0x50>
    11a0:	040007b7          	lui	a5,0x4000
    11a4:	03000713          	li	a4,48
    11a8:	04e7a023          	sw	a4,64(a5) # 4000040 <_stack_end+0x3efd988>
    11ac:	00008067          	ret
    11b0:	02e55833          	divu	a6,a0,a4
    11b4:	03080813          	addi	a6,a6,48
    11b8:	0ff87813          	zext.b	a6,a6
    11bc:	0006a783          	lw	a5,0(a3) # 10000 <__global_pointer+0xd270>
    11c0:	fec7eee3          	bltu	a5,a2,11bc <print_dec+0x74>
    11c4:	01032023          	sw	a6,0(t1)
    11c8:	00100793          	li	a5,1
    11cc:	fadff06f          	j	1178 <print_dec+0x30>

000011d0 <print_hex32>:
    11d0:	04000737          	lui	a4,0x4000
    11d4:	04470713          	addi	a4,a4,68 # 4000044 <_stack_end+0x3efd98c>
    11d8:	000106b7          	lui	a3,0x10
    11dc:	00072783          	lw	a5,0(a4)
    11e0:	fed7eee3          	bltu	a5,a3,11dc <print_hex32+0xc>
    11e4:	03000693          	li	a3,48
    11e8:	040007b7          	lui	a5,0x4000
    11ec:	04000737          	lui	a4,0x4000
    11f0:	04d7a023          	sw	a3,64(a5) # 4000040 <_stack_end+0x3efd988>
    11f4:	04470713          	addi	a4,a4,68 # 4000044 <_stack_end+0x3efd98c>
    11f8:	000106b7          	lui	a3,0x10
    11fc:	00072783          	lw	a5,0(a4)
    1200:	fed7eee3          	bltu	a5,a3,11fc <print_hex32+0x2c>
    1204:	04000837          	lui	a6,0x4000
    1208:	04080813          	addi	a6,a6,64 # 4000040 <_stack_end+0x3efd988>
    120c:	04000737          	lui	a4,0x4000
    1210:	07800793          	li	a5,120
    1214:	00f82023          	sw	a5,0(a6)
    1218:	01c00613          	li	a2,28
    121c:	00900313          	li	t1,9
    1220:	04470713          	addi	a4,a4,68 # 4000044 <_stack_end+0x3efd98c>
    1224:	000106b7          	lui	a3,0x10
    1228:	ffc00893          	li	a7,-4
    122c:	00c557b3          	srl	a5,a0,a2
    1230:	00f7f793          	andi	a5,a5,15
    1234:	03778593          	addi	a1,a5,55
    1238:	00f36463          	bltu	t1,a5,1240 <print_hex32+0x70>
    123c:	03078593          	addi	a1,a5,48
    1240:	00072783          	lw	a5,0(a4)
    1244:	fed7eee3          	bltu	a5,a3,1240 <print_hex32+0x70>
    1248:	00b82023          	sw	a1,0(a6)
    124c:	ffc60613          	addi	a2,a2,-4 # fffc <__global_pointer+0xd26c>
    1250:	fd161ee3          	bne	a2,a7,122c <print_hex32+0x5c>
    1254:	00008067          	ret

00001258 <handle_exception>:
    1258:	00200793          	li	a5,2
    125c:	18f80863          	beq	a6,a5,13ec <handle_exception+0x194>
    1260:	00b00793          	li	a5,11
    1264:	12f80063          	beq	a6,a5,1384 <handle_exception+0x12c>
    1268:	04000737          	lui	a4,0x4000
    126c:	14081463          	bnez	a6,13b4 <handle_exception+0x15c>
    1270:	04000837          	lui	a6,0x4000
    1274:	00002637          	lui	a2,0x2
    1278:	63060613          	addi	a2,a2,1584 # 2630 <player1_dy+0x58>
    127c:	00a00593          	li	a1,10
    1280:	04470713          	addi	a4,a4,68 # 4000044 <_stack_end+0x3efd98c>
    1284:	000106b7          	lui	a3,0x10
    1288:	04080813          	addi	a6,a6,64 # 4000040 <_stack_end+0x3efd988>
    128c:	00072783          	lw	a5,0(a4)
    1290:	fed7eee3          	bltu	a5,a3,128c <handle_exception+0x34>
    1294:	00b82023          	sw	a1,0(a6)
    1298:	00164583          	lbu	a1,1(a2)
    129c:	00160613          	addi	a2,a2,1
    12a0:	fe0596e3          	bnez	a1,128c <handle_exception+0x34>
    12a4:	04000737          	lui	a4,0x4000
    12a8:	04000837          	lui	a6,0x4000
    12ac:	00002637          	lui	a2,0x2
    12b0:	6a460613          	addi	a2,a2,1700 # 26a4 <player1_dy+0xcc>
    12b4:	04500593          	li	a1,69
    12b8:	04470713          	addi	a4,a4,68 # 4000044 <_stack_end+0x3efd98c>
    12bc:	000106b7          	lui	a3,0x10
    12c0:	04080813          	addi	a6,a6,64 # 4000040 <_stack_end+0x3efd988>
    12c4:	00072783          	lw	a5,0(a4)
    12c8:	fed7eee3          	bltu	a5,a3,12c4 <handle_exception+0x6c>
    12cc:	00b82023          	sw	a1,0(a6)
    12d0:	00164583          	lbu	a1,1(a2)
    12d4:	00160613          	addi	a2,a2,1
    12d8:	fe0596e3          	bnez	a1,12c4 <handle_exception+0x6c>
    12dc:	04000737          	lui	a4,0x4000
    12e0:	04470713          	addi	a4,a4,68 # 4000044 <_stack_end+0x3efd98c>
    12e4:	000106b7          	lui	a3,0x10
    12e8:	00072783          	lw	a5,0(a4)
    12ec:	fed7eee3          	bltu	a5,a3,12e8 <handle_exception+0x90>
    12f0:	03000693          	li	a3,48
    12f4:	040007b7          	lui	a5,0x4000
    12f8:	04000737          	lui	a4,0x4000
    12fc:	04d7a023          	sw	a3,64(a5) # 4000040 <_stack_end+0x3efd988>
    1300:	04470713          	addi	a4,a4,68 # 4000044 <_stack_end+0x3efd98c>
    1304:	000106b7          	lui	a3,0x10
    1308:	00072783          	lw	a5,0(a4)
    130c:	fed7eee3          	bltu	a5,a3,1308 <handle_exception+0xb0>
    1310:	04000837          	lui	a6,0x4000
    1314:	04080813          	addi	a6,a6,64 # 4000040 <_stack_end+0x3efd988>
    1318:	04000737          	lui	a4,0x4000
    131c:	07800793          	li	a5,120
    1320:	00f82023          	sw	a5,0(a6)
    1324:	01c00613          	li	a2,28
    1328:	00900313          	li	t1,9
    132c:	04470713          	addi	a4,a4,68 # 4000044 <_stack_end+0x3efd98c>
    1330:	000106b7          	lui	a3,0x10
    1334:	ffc00893          	li	a7,-4
    1338:	00c557b3          	srl	a5,a0,a2
    133c:	00f7f793          	andi	a5,a5,15
    1340:	03778593          	addi	a1,a5,55
    1344:	00f36463          	bltu	t1,a5,134c <handle_exception+0xf4>
    1348:	03078593          	addi	a1,a5,48
    134c:	00072783          	lw	a5,0(a4)
    1350:	fed7eee3          	bltu	a5,a3,134c <handle_exception+0xf4>
    1354:	00b82023          	sw	a1,0(a6)
    1358:	ffc60613          	addi	a2,a2,-4
    135c:	fd161ee3          	bne	a2,a7,1338 <handle_exception+0xe0>
    1360:	04000737          	lui	a4,0x4000
    1364:	04470713          	addi	a4,a4,68 # 4000044 <_stack_end+0x3efd98c>
    1368:	000106b7          	lui	a3,0x10
    136c:	00072783          	lw	a5,0(a4)
    1370:	fed7eee3          	bltu	a5,a3,136c <handle_exception+0x114>
    1374:	040007b7          	lui	a5,0x4000
    1378:	00a00713          	li	a4,10
    137c:	04e7a023          	sw	a4,64(a5) # 4000040 <_stack_end+0x3efd988>
    1380:	0000006f          	j	1380 <handle_exception+0x128>
    1384:	00400793          	li	a5,4
    1388:	0af88063          	beq	a7,a5,1428 <handle_exception+0x1d0>
    138c:	0d089a63          	bne	a7,a6,1460 <handle_exception+0x208>
    1390:	04000737          	lui	a4,0x4000
    1394:	04470713          	addi	a4,a4,68 # 4000044 <_stack_end+0x3efd98c>
    1398:	000106b7          	lui	a3,0x10
    139c:	00072783          	lw	a5,0(a4)
    13a0:	fed7eee3          	bltu	a5,a3,139c <handle_exception+0x144>
    13a4:	040007b7          	lui	a5,0x4000
    13a8:	0ff57513          	zext.b	a0,a0
    13ac:	04a7a023          	sw	a0,64(a5) # 4000040 <_stack_end+0x3efd988>
    13b0:	00008067          	ret
    13b4:	04000837          	lui	a6,0x4000
    13b8:	00002637          	lui	a2,0x2
    13bc:	68460613          	addi	a2,a2,1668 # 2684 <player1_dy+0xac>
    13c0:	00a00593          	li	a1,10
    13c4:	04470713          	addi	a4,a4,68
    13c8:	000106b7          	lui	a3,0x10
    13cc:	04080813          	addi	a6,a6,64 # 4000040 <_stack_end+0x3efd988>
    13d0:	00072783          	lw	a5,0(a4)
    13d4:	fed7eee3          	bltu	a5,a3,13d0 <handle_exception+0x178>
    13d8:	00b82023          	sw	a1,0(a6)
    13dc:	00164583          	lbu	a1,1(a2)
    13e0:	00160613          	addi	a2,a2,1
    13e4:	fe0596e3          	bnez	a1,13d0 <handle_exception+0x178>
    13e8:	ebdff06f          	j	12a4 <handle_exception+0x4c>
    13ec:	04000737          	lui	a4,0x4000
    13f0:	04000837          	lui	a6,0x4000
    13f4:	00002637          	lui	a2,0x2
    13f8:	66060613          	addi	a2,a2,1632 # 2660 <player1_dy+0x88>
    13fc:	00a00593          	li	a1,10
    1400:	04470713          	addi	a4,a4,68 # 4000044 <_stack_end+0x3efd98c>
    1404:	000106b7          	lui	a3,0x10
    1408:	04080813          	addi	a6,a6,64 # 4000040 <_stack_end+0x3efd988>
    140c:	00072783          	lw	a5,0(a4)
    1410:	fed7eee3          	bltu	a5,a3,140c <handle_exception+0x1b4>
    1414:	00b82023          	sw	a1,0(a6)
    1418:	00164583          	lbu	a1,1(a2)
    141c:	00160613          	addi	a2,a2,1
    1420:	fe0596e3          	bnez	a1,140c <handle_exception+0x1b4>
    1424:	e81ff06f          	j	12a4 <handle_exception+0x4c>
    1428:	00054603          	lbu	a2,0(a0)
    142c:	02060a63          	beqz	a2,1460 <handle_exception+0x208>
    1430:	04000737          	lui	a4,0x4000
    1434:	040005b7          	lui	a1,0x4000
    1438:	04470713          	addi	a4,a4,68 # 4000044 <_stack_end+0x3efd98c>
    143c:	000106b7          	lui	a3,0x10
    1440:	04058593          	addi	a1,a1,64 # 4000040 <_stack_end+0x3efd988>
    1444:	00072783          	lw	a5,0(a4)
    1448:	fed7eee3          	bltu	a5,a3,1444 <handle_exception+0x1ec>
    144c:	00c5a023          	sw	a2,0(a1)
    1450:	00154603          	lbu	a2,1(a0)
    1454:	00150513          	addi	a0,a0,1
    1458:	fe0616e3          	bnez	a2,1444 <handle_exception+0x1ec>
    145c:	00008067          	ret
    1460:	00008067          	ret

00001464 <nextprime>:
    1464:	00200713          	li	a4,2
    1468:	00050793          	mv	a5,a0
    146c:	02a74063          	blt	a4,a0,148c <nextprime+0x28>
    1470:	00100513          	li	a0,1
    1474:	00f05a63          	blez	a5,1488 <nextprime+0x24>
    1478:	fff78793          	addi	a5,a5,-1
    147c:	00f037b3          	snez	a5,a5
    1480:	00278513          	addi	a0,a5,2
    1484:	00008067          	ret
    1488:	00008067          	ret
    148c:	00150793          	addi	a5,a0,1
    1490:	0017e513          	ori	a0,a5,1
    1494:	00300613          	li	a2,3
    1498:	02c567b3          	rem	a5,a0,a2
    149c:	40155693          	srai	a3,a0,0x1
    14a0:	02078263          	beqz	a5,14c4 <nextprime+0x60>
    14a4:	00268693          	addi	a3,a3,2 # 10002 <__global_pointer+0xd272>
    14a8:	00300793          	li	a5,3
    14ac:	00c0006f          	j	14b8 <nextprime+0x54>
    14b0:	02f56733          	rem	a4,a0,a5
    14b4:	00070863          	beqz	a4,14c4 <nextprime+0x60>
    14b8:	00178793          	addi	a5,a5,1
    14bc:	fef69ae3          	bne	a3,a5,14b0 <nextprime+0x4c>
    14c0:	00008067          	ret
    14c4:	00250513          	addi	a0,a0,2
    14c8:	fd1ff06f          	j	1498 <nextprime+0x34>

000014cc <handle_interrupt>:
    14cc:	00008067          	ret

000014d0 <reset_screen>:
    14d0:	000136b7          	lui	a3,0x13
    14d4:	00000793          	li	a5,0
    14d8:	00002637          	lui	a2,0x2
    14dc:	c0068693          	addi	a3,a3,-1024 # 12c00 <__global_pointer+0xfe70>
    14e0:	5ac62703          	lw	a4,1452(a2) # 25ac <VGA>
    14e4:	00f70733          	add	a4,a4,a5
    14e8:	00070023          	sb	zero,0(a4)
    14ec:	00178793          	addi	a5,a5,1
    14f0:	fed798e3          	bne	a5,a3,14e0 <reset_screen+0x10>
    14f4:	00008067          	ret

000014f8 <draw_ball>:
    14f8:	00002eb7          	lui	t4,0x2
    14fc:	590ea583          	lw	a1,1424(t4) # 2590 <ball_size>
    1500:	00000893          	li	a7,0
    1504:	00002537          	lui	a0,0x2
    1508:	06b05263          	blez	a1,156c <draw_ball+0x74>
    150c:	13f00813          	li	a6,319
    1510:	00002e37          	lui	t3,0x2
    1514:	0ef00313          	li	t1,239
    1518:	00002fb7          	lui	t6,0x2
    151c:	fff00f13          	li	t5,-1
    1520:	00000713          	li	a4,0
    1524:	59c52783          	lw	a5,1436(a0) # 259c <ball_x>
    1528:	00f707b3          	add	a5,a4,a5
    152c:	00170713          	addi	a4,a4,1
    1530:	02f86863          	bltu	a6,a5,1560 <draw_ball+0x68>
    1534:	598e2603          	lw	a2,1432(t3) # 2598 <ball_y>
    1538:	00c88633          	add	a2,a7,a2
    153c:	00261693          	slli	a3,a2,0x2
    1540:	00c686b3          	add	a3,a3,a2
    1544:	00669693          	slli	a3,a3,0x6
    1548:	00f686b3          	add	a3,a3,a5
    154c:	00c36a63          	bltu	t1,a2,1560 <draw_ball+0x68>
    1550:	5acfa783          	lw	a5,1452(t6) # 25ac <VGA>
    1554:	00d787b3          	add	a5,a5,a3
    1558:	01e78023          	sb	t5,0(a5)
    155c:	590ea583          	lw	a1,1424(t4)
    1560:	fcb742e3          	blt	a4,a1,1524 <draw_ball+0x2c>
    1564:	00188893          	addi	a7,a7,1
    1568:	fab8cce3          	blt	a7,a1,1520 <draw_ball+0x28>
    156c:	00008067          	ret

00001570 <draw_paddle1>:
    1570:	000028b7          	lui	a7,0x2
    1574:	5948a783          	lw	a5,1428(a7) # 2594 <paddle_height>
    1578:	00000593          	li	a1,0
    157c:	00002837          	lui	a6,0x2
    1580:	20f05863          	blez	a5,1790 <draw_paddle1+0x220>
    1584:	0ef00513          	li	a0,239
    1588:	00002e37          	lui	t3,0x2
    158c:	fff00313          	li	t1,-1
    1590:	5a482683          	lw	a3,1444(a6) # 25a4 <player1_y>
    1594:	01f7d613          	srli	a2,a5,0x1f
    1598:	00f60733          	add	a4,a2,a5
    159c:	40175713          	srai	a4,a4,0x1
    15a0:	40e68733          	sub	a4,a3,a4
    15a4:	00b70733          	add	a4,a4,a1
    15a8:	02e56663          	bltu	a0,a4,15d4 <draw_paddle1+0x64>
    15ac:	00271793          	slli	a5,a4,0x2
    15b0:	5ace2683          	lw	a3,1452(t3) # 25ac <VGA>
    15b4:	00e787b3          	add	a5,a5,a4
    15b8:	00679793          	slli	a5,a5,0x6
    15bc:	00878793          	addi	a5,a5,8
    15c0:	00f687b3          	add	a5,a3,a5
    15c4:	00678023          	sb	t1,0(a5)
    15c8:	5948a783          	lw	a5,1428(a7)
    15cc:	5a482683          	lw	a3,1444(a6)
    15d0:	01f7d613          	srli	a2,a5,0x1f
    15d4:	00f60633          	add	a2,a2,a5
    15d8:	40165613          	srai	a2,a2,0x1
    15dc:	40c686b3          	sub	a3,a3,a2
    15e0:	00b686b3          	add	a3,a3,a1
    15e4:	1a06c263          	bltz	a3,1788 <draw_paddle1+0x218>
    15e8:	1ad54063          	blt	a0,a3,1788 <draw_paddle1+0x218>
    15ec:	00269793          	slli	a5,a3,0x2
    15f0:	5ace2703          	lw	a4,1452(t3)
    15f4:	00d787b3          	add	a5,a5,a3
    15f8:	00679793          	slli	a5,a5,0x6
    15fc:	00978793          	addi	a5,a5,9
    1600:	00f707b3          	add	a5,a4,a5
    1604:	00678023          	sb	t1,0(a5)
    1608:	5948a783          	lw	a5,1428(a7)
    160c:	5a482703          	lw	a4,1444(a6)
    1610:	01f7d693          	srli	a3,a5,0x1f
    1614:	00f686b3          	add	a3,a3,a5
    1618:	4016d693          	srai	a3,a3,0x1
    161c:	40d70733          	sub	a4,a4,a3
    1620:	00b70733          	add	a4,a4,a1
    1624:	16074263          	bltz	a4,1788 <draw_paddle1+0x218>
    1628:	16e54063          	blt	a0,a4,1788 <draw_paddle1+0x218>
    162c:	00271793          	slli	a5,a4,0x2
    1630:	5ace2683          	lw	a3,1452(t3)
    1634:	00e787b3          	add	a5,a5,a4
    1638:	00679793          	slli	a5,a5,0x6
    163c:	00a78793          	addi	a5,a5,10
    1640:	00f687b3          	add	a5,a3,a5
    1644:	00678023          	sb	t1,0(a5)
    1648:	5948a783          	lw	a5,1428(a7)
    164c:	5a482703          	lw	a4,1444(a6)
    1650:	01f7d693          	srli	a3,a5,0x1f
    1654:	00f686b3          	add	a3,a3,a5
    1658:	4016d693          	srai	a3,a3,0x1
    165c:	40d70733          	sub	a4,a4,a3
    1660:	00b70733          	add	a4,a4,a1
    1664:	12074263          	bltz	a4,1788 <draw_paddle1+0x218>
    1668:	12e54063          	blt	a0,a4,1788 <draw_paddle1+0x218>
    166c:	00271793          	slli	a5,a4,0x2
    1670:	5ace2683          	lw	a3,1452(t3)
    1674:	00e787b3          	add	a5,a5,a4
    1678:	00679793          	slli	a5,a5,0x6
    167c:	00b78793          	addi	a5,a5,11
    1680:	00f687b3          	add	a5,a3,a5
    1684:	00678023          	sb	t1,0(a5)
    1688:	5948a783          	lw	a5,1428(a7)
    168c:	5a482703          	lw	a4,1444(a6)
    1690:	01f7d693          	srli	a3,a5,0x1f
    1694:	00f686b3          	add	a3,a3,a5
    1698:	4016d693          	srai	a3,a3,0x1
    169c:	40d70733          	sub	a4,a4,a3
    16a0:	00b70733          	add	a4,a4,a1
    16a4:	0e074263          	bltz	a4,1788 <draw_paddle1+0x218>
    16a8:	0ee54063          	blt	a0,a4,1788 <draw_paddle1+0x218>
    16ac:	00271793          	slli	a5,a4,0x2
    16b0:	5ace2683          	lw	a3,1452(t3)
    16b4:	00e787b3          	add	a5,a5,a4
    16b8:	00679793          	slli	a5,a5,0x6
    16bc:	00c78793          	addi	a5,a5,12
    16c0:	00f687b3          	add	a5,a3,a5
    16c4:	00678023          	sb	t1,0(a5)
    16c8:	5948a783          	lw	a5,1428(a7)
    16cc:	5a482703          	lw	a4,1444(a6)
    16d0:	01f7d693          	srli	a3,a5,0x1f
    16d4:	00f686b3          	add	a3,a3,a5
    16d8:	4016d693          	srai	a3,a3,0x1
    16dc:	40d70733          	sub	a4,a4,a3
    16e0:	00b70733          	add	a4,a4,a1
    16e4:	0a074263          	bltz	a4,1788 <draw_paddle1+0x218>
    16e8:	0ae54063          	blt	a0,a4,1788 <draw_paddle1+0x218>
    16ec:	00271793          	slli	a5,a4,0x2
    16f0:	5ace2683          	lw	a3,1452(t3)
    16f4:	00e787b3          	add	a5,a5,a4
    16f8:	00679793          	slli	a5,a5,0x6
    16fc:	00d78793          	addi	a5,a5,13
    1700:	00f687b3          	add	a5,a3,a5
    1704:	00678023          	sb	t1,0(a5)
    1708:	5948a783          	lw	a5,1428(a7)
    170c:	5a482703          	lw	a4,1444(a6)
    1710:	01f7d693          	srli	a3,a5,0x1f
    1714:	00f686b3          	add	a3,a3,a5
    1718:	4016d693          	srai	a3,a3,0x1
    171c:	40d70733          	sub	a4,a4,a3
    1720:	00b70733          	add	a4,a4,a1
    1724:	06074263          	bltz	a4,1788 <draw_paddle1+0x218>
    1728:	06e54063          	blt	a0,a4,1788 <draw_paddle1+0x218>
    172c:	00271793          	slli	a5,a4,0x2
    1730:	5ace2683          	lw	a3,1452(t3)
    1734:	00e787b3          	add	a5,a5,a4
    1738:	00679793          	slli	a5,a5,0x6
    173c:	00e78793          	addi	a5,a5,14
    1740:	00f687b3          	add	a5,a3,a5
    1744:	00678023          	sb	t1,0(a5)
    1748:	5948a783          	lw	a5,1428(a7)
    174c:	5a482703          	lw	a4,1444(a6)
    1750:	01f7d693          	srli	a3,a5,0x1f
    1754:	00f686b3          	add	a3,a3,a5
    1758:	4016d693          	srai	a3,a3,0x1
    175c:	40d70733          	sub	a4,a4,a3
    1760:	00b70733          	add	a4,a4,a1
    1764:	02e56263          	bltu	a0,a4,1788 <draw_paddle1+0x218>
    1768:	00271793          	slli	a5,a4,0x2
    176c:	5ace2683          	lw	a3,1452(t3)
    1770:	00e787b3          	add	a5,a5,a4
    1774:	00679793          	slli	a5,a5,0x6
    1778:	00f78793          	addi	a5,a5,15
    177c:	00f687b3          	add	a5,a3,a5
    1780:	00678023          	sb	t1,0(a5)
    1784:	5948a783          	lw	a5,1428(a7)
    1788:	00158593          	addi	a1,a1,1
    178c:	e0f5c2e3          	blt	a1,a5,1590 <draw_paddle1+0x20>
    1790:	00008067          	ret

00001794 <draw_paddle2>:
    1794:	00002537          	lui	a0,0x2
    1798:	59452703          	lw	a4,1428(a0) # 2594 <paddle_height>
    179c:	00000693          	li	a3,0
    17a0:	000025b7          	lui	a1,0x2
    17a4:	20e05463          	blez	a4,19ac <draw_paddle2+0x218>
    17a8:	0ef00613          	li	a2,239
    17ac:	000028b7          	lui	a7,0x2
    17b0:	fff00813          	li	a6,-1
    17b4:	5a05a303          	lw	t1,1440(a1) # 25a0 <player2_y>
    17b8:	40175793          	srai	a5,a4,0x1
    17bc:	006787b3          	add	a5,a5,t1
    17c0:	00d787b3          	add	a5,a5,a3
    17c4:	02f66463          	bltu	a2,a5,17ec <draw_paddle2+0x58>
    17c8:	00279713          	slli	a4,a5,0x2
    17cc:	5ac8a303          	lw	t1,1452(a7) # 25ac <VGA>
    17d0:	00f707b3          	add	a5,a4,a5
    17d4:	00679793          	slli	a5,a5,0x6
    17d8:	00878793          	addi	a5,a5,8
    17dc:	00f307b3          	add	a5,t1,a5
    17e0:	01078023          	sb	a6,0(a5)
    17e4:	59452703          	lw	a4,1428(a0)
    17e8:	5a05a303          	lw	t1,1440(a1)
    17ec:	01f75793          	srli	a5,a4,0x1f
    17f0:	00e787b3          	add	a5,a5,a4
    17f4:	4017d793          	srai	a5,a5,0x1
    17f8:	006787b3          	add	a5,a5,t1
    17fc:	00d787b3          	add	a5,a5,a3
    1800:	1a07c263          	bltz	a5,19a4 <draw_paddle2+0x210>
    1804:	1af64063          	blt	a2,a5,19a4 <draw_paddle2+0x210>
    1808:	00279713          	slli	a4,a5,0x2
    180c:	5ac8a303          	lw	t1,1452(a7)
    1810:	00f707b3          	add	a5,a4,a5
    1814:	00679793          	slli	a5,a5,0x6
    1818:	00878793          	addi	a5,a5,8
    181c:	00f307b3          	add	a5,t1,a5
    1820:	01078023          	sb	a6,0(a5)
    1824:	59452703          	lw	a4,1428(a0)
    1828:	5a05a303          	lw	t1,1440(a1)
    182c:	01f75793          	srli	a5,a4,0x1f
    1830:	00e787b3          	add	a5,a5,a4
    1834:	4017d793          	srai	a5,a5,0x1
    1838:	006787b3          	add	a5,a5,t1
    183c:	00d787b3          	add	a5,a5,a3
    1840:	1607c263          	bltz	a5,19a4 <draw_paddle2+0x210>
    1844:	16f64063          	blt	a2,a5,19a4 <draw_paddle2+0x210>
    1848:	00279713          	slli	a4,a5,0x2
    184c:	5ac8a303          	lw	t1,1452(a7)
    1850:	00f707b3          	add	a5,a4,a5
    1854:	00679793          	slli	a5,a5,0x6
    1858:	00878793          	addi	a5,a5,8
    185c:	00f307b3          	add	a5,t1,a5
    1860:	01078023          	sb	a6,0(a5)
    1864:	59452703          	lw	a4,1428(a0)
    1868:	5a05a303          	lw	t1,1440(a1)
    186c:	01f75793          	srli	a5,a4,0x1f
    1870:	00e787b3          	add	a5,a5,a4
    1874:	4017d793          	srai	a5,a5,0x1
    1878:	006787b3          	add	a5,a5,t1
    187c:	00d787b3          	add	a5,a5,a3
    1880:	1207c263          	bltz	a5,19a4 <draw_paddle2+0x210>
    1884:	12f64063          	blt	a2,a5,19a4 <draw_paddle2+0x210>
    1888:	00279713          	slli	a4,a5,0x2
    188c:	5ac8a303          	lw	t1,1452(a7)
    1890:	00f707b3          	add	a5,a4,a5
    1894:	00679793          	slli	a5,a5,0x6
    1898:	00878793          	addi	a5,a5,8
    189c:	00f307b3          	add	a5,t1,a5
    18a0:	01078023          	sb	a6,0(a5)
    18a4:	59452703          	lw	a4,1428(a0)
    18a8:	5a05a303          	lw	t1,1440(a1)
    18ac:	01f75793          	srli	a5,a4,0x1f
    18b0:	00e787b3          	add	a5,a5,a4
    18b4:	4017d793          	srai	a5,a5,0x1
    18b8:	006787b3          	add	a5,a5,t1
    18bc:	00d787b3          	add	a5,a5,a3
    18c0:	0e07c263          	bltz	a5,19a4 <draw_paddle2+0x210>
    18c4:	0ef64063          	blt	a2,a5,19a4 <draw_paddle2+0x210>
    18c8:	00279713          	slli	a4,a5,0x2
    18cc:	5ac8a303          	lw	t1,1452(a7)
    18d0:	00f707b3          	add	a5,a4,a5
    18d4:	00679793          	slli	a5,a5,0x6
    18d8:	00878793          	addi	a5,a5,8
    18dc:	00f307b3          	add	a5,t1,a5
    18e0:	01078023          	sb	a6,0(a5)
    18e4:	59452703          	lw	a4,1428(a0)
    18e8:	5a05a303          	lw	t1,1440(a1)
    18ec:	01f75793          	srli	a5,a4,0x1f
    18f0:	00e787b3          	add	a5,a5,a4
    18f4:	4017d793          	srai	a5,a5,0x1
    18f8:	006787b3          	add	a5,a5,t1
    18fc:	00d787b3          	add	a5,a5,a3
    1900:	0a07c263          	bltz	a5,19a4 <draw_paddle2+0x210>
    1904:	0af64063          	blt	a2,a5,19a4 <draw_paddle2+0x210>
    1908:	00279713          	slli	a4,a5,0x2
    190c:	5ac8a303          	lw	t1,1452(a7)
    1910:	00f707b3          	add	a5,a4,a5
    1914:	00679793          	slli	a5,a5,0x6
    1918:	00878793          	addi	a5,a5,8
    191c:	00f307b3          	add	a5,t1,a5
    1920:	01078023          	sb	a6,0(a5)
    1924:	59452703          	lw	a4,1428(a0)
    1928:	5a05a303          	lw	t1,1440(a1)
    192c:	01f75793          	srli	a5,a4,0x1f
    1930:	00e787b3          	add	a5,a5,a4
    1934:	4017d793          	srai	a5,a5,0x1
    1938:	006787b3          	add	a5,a5,t1
    193c:	00d787b3          	add	a5,a5,a3
    1940:	0607c263          	bltz	a5,19a4 <draw_paddle2+0x210>
    1944:	06f64063          	blt	a2,a5,19a4 <draw_paddle2+0x210>
    1948:	00279713          	slli	a4,a5,0x2
    194c:	5ac8a303          	lw	t1,1452(a7)
    1950:	00f707b3          	add	a5,a4,a5
    1954:	00679793          	slli	a5,a5,0x6
    1958:	00878793          	addi	a5,a5,8
    195c:	00f307b3          	add	a5,t1,a5
    1960:	01078023          	sb	a6,0(a5)
    1964:	59452703          	lw	a4,1428(a0)
    1968:	5a05a303          	lw	t1,1440(a1)
    196c:	01f75793          	srli	a5,a4,0x1f
    1970:	00e787b3          	add	a5,a5,a4
    1974:	4017d793          	srai	a5,a5,0x1
    1978:	006787b3          	add	a5,a5,t1
    197c:	00d787b3          	add	a5,a5,a3
    1980:	02f66263          	bltu	a2,a5,19a4 <draw_paddle2+0x210>
    1984:	00279713          	slli	a4,a5,0x2
    1988:	5ac8a303          	lw	t1,1452(a7)
    198c:	00f707b3          	add	a5,a4,a5
    1990:	00679793          	slli	a5,a5,0x6
    1994:	00878793          	addi	a5,a5,8
    1998:	00f307b3          	add	a5,t1,a5
    199c:	01078023          	sb	a6,0(a5)
    19a0:	59452703          	lw	a4,1428(a0)
    19a4:	00168693          	addi	a3,a3,1
    19a8:	e0e6c6e3          	blt	a3,a4,17b4 <draw_paddle2+0x20>
    19ac:	00008067          	ret

000019b0 <draw_diagonal_line>:
    19b0:	40a608b3          	sub	a7,a2,a0
    19b4:	40b68eb3          	sub	t4,a3,a1
    19b8:	ff010113          	addi	sp,sp,-16
    19bc:	41f8d713          	srai	a4,a7,0x1f
    19c0:	41fed793          	srai	a5,t4,0x1f
    19c4:	011748b3          	xor	a7,a4,a7
    19c8:	01d7ceb3          	xor	t4,a5,t4
    19cc:	00812623          	sw	s0,12(sp)
    19d0:	00912423          	sw	s1,8(sp)
    19d4:	40e888b3          	sub	a7,a7,a4
    19d8:	40fe8eb3          	sub	t4,t4,a5
    19dc:	00100293          	li	t0,1
    19e0:	00c54463          	blt	a0,a2,19e8 <draw_diagonal_line+0x38>
    19e4:	fff00293          	li	t0,-1
    19e8:	fff00393          	li	t2,-1
    19ec:	00d5d463          	bge	a1,a3,19f4 <draw_diagonal_line+0x44>
    19f0:	00100393          	li	t2,1
    19f4:	41d88733          	sub	a4,a7,t4
    19f8:	13f00313          	li	t1,319
    19fc:	0ef00f93          	li	t6,239
    1a00:	000024b7          	lui	s1,0x2
    1a04:	fff00413          	li	s0,-1
    1a08:	41d00e33          	neg	t3,t4
    1a0c:	00171813          	slli	a6,a4,0x1
    1a10:	02a36263          	bltu	t1,a0,1a34 <draw_diagonal_line+0x84>
    1a14:	00259793          	slli	a5,a1,0x2
    1a18:	00b787b3          	add	a5,a5,a1
    1a1c:	00679793          	slli	a5,a5,0x6
    1a20:	00a787b3          	add	a5,a5,a0
    1a24:	00bfe863          	bltu	t6,a1,1a34 <draw_diagonal_line+0x84>
    1a28:	5ac4af03          	lw	t5,1452(s1) # 25ac <VGA>
    1a2c:	00ff07b3          	add	a5,t5,a5
    1a30:	00878023          	sb	s0,0(a5)
    1a34:	02c50063          	beq	a0,a2,1a54 <draw_diagonal_line+0xa4>
    1a38:	010e5663          	bge	t3,a6,1a44 <draw_diagonal_line+0x94>
    1a3c:	41d70733          	sub	a4,a4,t4
    1a40:	00550533          	add	a0,a0,t0
    1a44:	fd1854e3          	bge	a6,a7,1a0c <draw_diagonal_line+0x5c>
    1a48:	01170733          	add	a4,a4,a7
    1a4c:	007585b3          	add	a1,a1,t2
    1a50:	fbdff06f          	j	1a0c <draw_diagonal_line+0x5c>
    1a54:	fed592e3          	bne	a1,a3,1a38 <draw_diagonal_line+0x88>
    1a58:	00c12403          	lw	s0,12(sp)
    1a5c:	00812483          	lw	s1,8(sp)
    1a60:	01010113          	addi	sp,sp,16
    1a64:	00008067          	ret

00001a68 <main>:
    1a68:	fc010113          	addi	sp,sp,-64
    1a6c:	02112e23          	sw	ra,60(sp)
    1a70:	02812c23          	sw	s0,56(sp)
    1a74:	02912a23          	sw	s1,52(sp)
    1a78:	03212823          	sw	s2,48(sp)
    1a7c:	03312623          	sw	s3,44(sp)
    1a80:	03412423          	sw	s4,40(sp)
    1a84:	03512223          	sw	s5,36(sp)
    1a88:	03612023          	sw	s6,32(sp)
    1a8c:	01712e23          	sw	s7,28(sp)
    1a90:	01812c23          	sw	s8,24(sp)
    1a94:	01912a23          	sw	s9,20(sp)
    1a98:	01a12823          	sw	s10,16(sp)
    1a9c:	01b12623          	sw	s11,12(sp)
    1aa0:	ed4fe0ef          	jal	174 <initialize_game>
    1aa4:	00002437          	lui	s0,0x2
    1aa8:	d38ff0ef          	jal	fe0 <get_btn>
    1aac:	5c042783          	lw	a5,1472(s0) # 25c0 <game_state>
    1ab0:	00013ab7          	lui	s5,0x13
    1ab4:	00002a37          	lui	s4,0x2
    1ab8:	00002db7          	lui	s11,0x2
    1abc:	00002c37          	lui	s8,0x2
    1ac0:	00002d37          	lui	s10,0x2
    1ac4:	000029b7          	lui	s3,0x2
    1ac8:	00002937          	lui	s2,0x2
    1acc:	000024b7          	lui	s1,0x2
    1ad0:	c00a8a93          	addi	s5,s5,-1024 # 12c00 <__global_pointer+0xfe70>
    1ad4:	13f00b93          	li	s7,319
    1ad8:	0ef00b13          	li	s6,239
    1adc:	fff00c93          	li	s9,-1
    1ae0:	02079a63          	bnez	a5,1b14 <main+0xac>
    1ae4:	5a84a703          	lw	a4,1448(s1) # 25a8 <VGA_CTRL>
    1ae8:	5aca2683          	lw	a3,1452(s4) # 25ac <VGA>
    1aec:	000f47b7          	lui	a5,0xf4
    1af0:	24078793          	addi	a5,a5,576 # f4240 <__global_pointer+0xf14b0>
    1af4:	00d72223          	sw	a3,4(a4)
    1af8:	00072023          	sw	zero,0(a4)
    1afc:	00000013          	nop
    1b00:	fff78793          	addi	a5,a5,-1
    1b04:	fe079ce3          	bnez	a5,1afc <main+0x94>
    1b08:	cd8ff0ef          	jal	fe0 <get_btn>
    1b0c:	5c042783          	lw	a5,1472(s0)
    1b10:	fc078ae3          	beqz	a5,1ae4 <main+0x7c>
    1b14:	d68ff0ef          	jal	107c <set_special_game_modes>
    1b18:	ce0ff0ef          	jal	ff8 <set_paddles_velocity>
    1b1c:	978ff0ef          	jal	c94 <move_ball>
    1b20:	b30ff0ef          	jal	e50 <move_paddles>
    1b24:	00000793          	li	a5,0
    1b28:	5aca2703          	lw	a4,1452(s4)
    1b2c:	00f70733          	add	a4,a4,a5
    1b30:	00070023          	sb	zero,0(a4)
    1b34:	00178793          	addi	a5,a5,1
    1b38:	ff5798e3          	bne	a5,s5,1b28 <main+0xc0>
    1b3c:	000027b7          	lui	a5,0x2
    1b40:	5907a883          	lw	a7,1424(a5) # 2590 <ball_size>
    1b44:	00000313          	li	t1,0
    1b48:	05105a63          	blez	a7,1b9c <main+0x134>
    1b4c:	00000713          	li	a4,0
    1b50:	59cc2783          	lw	a5,1436(s8) # 259c <ball_x>
    1b54:	00f707b3          	add	a5,a4,a5
    1b58:	00170713          	addi	a4,a4,1
    1b5c:	02fbea63          	bltu	s7,a5,1b90 <main+0x128>
    1b60:	598d2503          	lw	a0,1432(s10) # 2598 <ball_y>
    1b64:	00a30533          	add	a0,t1,a0
    1b68:	00251693          	slli	a3,a0,0x2
    1b6c:	00a686b3          	add	a3,a3,a0
    1b70:	00669693          	slli	a3,a3,0x6
    1b74:	00f686b3          	add	a3,a3,a5
    1b78:	00ab6c63          	bltu	s6,a0,1b90 <main+0x128>
    1b7c:	5aca2783          	lw	a5,1452(s4)
    1b80:	00d787b3          	add	a5,a5,a3
    1b84:	01978023          	sb	s9,0(a5)
    1b88:	000027b7          	lui	a5,0x2
    1b8c:	5907a883          	lw	a7,1424(a5) # 2590 <ball_size>
    1b90:	fd1740e3          	blt	a4,a7,1b50 <main+0xe8>
    1b94:	00130313          	addi	t1,t1,1
    1b98:	fb134ae3          	blt	t1,a7,1b4c <main+0xe4>
    1b9c:	594da783          	lw	a5,1428(s11) # 2594 <paddle_height>
    1ba0:	00000893          	li	a7,0
    1ba4:	40f05263          	blez	a5,1fa8 <main+0x540>
    1ba8:	5a49a683          	lw	a3,1444(s3) # 25a4 <player1_y>
    1bac:	01f7d513          	srli	a0,a5,0x1f
    1bb0:	00f50733          	add	a4,a0,a5
    1bb4:	40175713          	srai	a4,a4,0x1
    1bb8:	40e68733          	sub	a4,a3,a4
    1bbc:	01170733          	add	a4,a4,a7
    1bc0:	02eb6663          	bltu	s6,a4,1bec <main+0x184>
    1bc4:	00271793          	slli	a5,a4,0x2
    1bc8:	5aca2683          	lw	a3,1452(s4)
    1bcc:	00e787b3          	add	a5,a5,a4
    1bd0:	00679793          	slli	a5,a5,0x6
    1bd4:	00878793          	addi	a5,a5,8
    1bd8:	00f687b3          	add	a5,a3,a5
    1bdc:	01978023          	sb	s9,0(a5)
    1be0:	594da783          	lw	a5,1428(s11)
    1be4:	5a49a683          	lw	a3,1444(s3)
    1be8:	01f7d513          	srli	a0,a5,0x1f
    1bec:	00f50733          	add	a4,a0,a5
    1bf0:	40175713          	srai	a4,a4,0x1
    1bf4:	40e68733          	sub	a4,a3,a4
    1bf8:	01170733          	add	a4,a4,a7
    1bfc:	1a074263          	bltz	a4,1da0 <main+0x338>
    1c00:	1aeb4063          	blt	s6,a4,1da0 <main+0x338>
    1c04:	00271793          	slli	a5,a4,0x2
    1c08:	5aca2683          	lw	a3,1452(s4)
    1c0c:	00e787b3          	add	a5,a5,a4
    1c10:	00679793          	slli	a5,a5,0x6
    1c14:	00978793          	addi	a5,a5,9
    1c18:	00f687b3          	add	a5,a3,a5
    1c1c:	01978023          	sb	s9,0(a5)
    1c20:	594da783          	lw	a5,1428(s11)
    1c24:	5a49a703          	lw	a4,1444(s3)
    1c28:	01f7d693          	srli	a3,a5,0x1f
    1c2c:	00f686b3          	add	a3,a3,a5
    1c30:	4016d693          	srai	a3,a3,0x1
    1c34:	40d70733          	sub	a4,a4,a3
    1c38:	01170733          	add	a4,a4,a7
    1c3c:	16074263          	bltz	a4,1da0 <main+0x338>
    1c40:	16eb4063          	blt	s6,a4,1da0 <main+0x338>
    1c44:	00271793          	slli	a5,a4,0x2
    1c48:	5aca2683          	lw	a3,1452(s4)
    1c4c:	00e787b3          	add	a5,a5,a4
    1c50:	00679793          	slli	a5,a5,0x6
    1c54:	00a78793          	addi	a5,a5,10
    1c58:	00f687b3          	add	a5,a3,a5
    1c5c:	01978023          	sb	s9,0(a5)
    1c60:	594da783          	lw	a5,1428(s11)
    1c64:	5a49a703          	lw	a4,1444(s3)
    1c68:	01f7d693          	srli	a3,a5,0x1f
    1c6c:	00f686b3          	add	a3,a3,a5
    1c70:	4016d693          	srai	a3,a3,0x1
    1c74:	40d70733          	sub	a4,a4,a3
    1c78:	01170733          	add	a4,a4,a7
    1c7c:	12074263          	bltz	a4,1da0 <main+0x338>
    1c80:	12eb4063          	blt	s6,a4,1da0 <main+0x338>
    1c84:	00271793          	slli	a5,a4,0x2
    1c88:	5aca2683          	lw	a3,1452(s4)
    1c8c:	00e787b3          	add	a5,a5,a4
    1c90:	00679793          	slli	a5,a5,0x6
    1c94:	00b78793          	addi	a5,a5,11
    1c98:	00f687b3          	add	a5,a3,a5
    1c9c:	01978023          	sb	s9,0(a5)
    1ca0:	594da783          	lw	a5,1428(s11)
    1ca4:	5a49a703          	lw	a4,1444(s3)
    1ca8:	01f7d693          	srli	a3,a5,0x1f
    1cac:	00f686b3          	add	a3,a3,a5
    1cb0:	4016d693          	srai	a3,a3,0x1
    1cb4:	40d70733          	sub	a4,a4,a3
    1cb8:	01170733          	add	a4,a4,a7
    1cbc:	0e074263          	bltz	a4,1da0 <main+0x338>
    1cc0:	0eeb4063          	blt	s6,a4,1da0 <main+0x338>
    1cc4:	00271793          	slli	a5,a4,0x2
    1cc8:	5aca2683          	lw	a3,1452(s4)
    1ccc:	00e787b3          	add	a5,a5,a4
    1cd0:	00679793          	slli	a5,a5,0x6
    1cd4:	00c78793          	addi	a5,a5,12
    1cd8:	00f687b3          	add	a5,a3,a5
    1cdc:	01978023          	sb	s9,0(a5)
    1ce0:	594da783          	lw	a5,1428(s11)
    1ce4:	5a49a703          	lw	a4,1444(s3)
    1ce8:	01f7d693          	srli	a3,a5,0x1f
    1cec:	00f686b3          	add	a3,a3,a5
    1cf0:	4016d693          	srai	a3,a3,0x1
    1cf4:	40d70733          	sub	a4,a4,a3
    1cf8:	01170733          	add	a4,a4,a7
    1cfc:	0a074263          	bltz	a4,1da0 <main+0x338>
    1d00:	0aeb4063          	blt	s6,a4,1da0 <main+0x338>
    1d04:	00271793          	slli	a5,a4,0x2
    1d08:	5aca2683          	lw	a3,1452(s4)
    1d0c:	00e787b3          	add	a5,a5,a4
    1d10:	00679793          	slli	a5,a5,0x6
    1d14:	00d78793          	addi	a5,a5,13
    1d18:	00f687b3          	add	a5,a3,a5
    1d1c:	01978023          	sb	s9,0(a5)
    1d20:	594da783          	lw	a5,1428(s11)
    1d24:	5a49a703          	lw	a4,1444(s3)
    1d28:	01f7d693          	srli	a3,a5,0x1f
    1d2c:	00f686b3          	add	a3,a3,a5
    1d30:	4016d693          	srai	a3,a3,0x1
    1d34:	40d70733          	sub	a4,a4,a3
    1d38:	01170733          	add	a4,a4,a7
    1d3c:	06074263          	bltz	a4,1da0 <main+0x338>
    1d40:	06eb4063          	blt	s6,a4,1da0 <main+0x338>
    1d44:	00271793          	slli	a5,a4,0x2
    1d48:	5aca2683          	lw	a3,1452(s4)
    1d4c:	00e787b3          	add	a5,a5,a4
    1d50:	00679793          	slli	a5,a5,0x6
    1d54:	00e78793          	addi	a5,a5,14
    1d58:	00f687b3          	add	a5,a3,a5
    1d5c:	01978023          	sb	s9,0(a5)
    1d60:	594da783          	lw	a5,1428(s11)
    1d64:	5a49a703          	lw	a4,1444(s3)
    1d68:	01f7d693          	srli	a3,a5,0x1f
    1d6c:	00f686b3          	add	a3,a3,a5
    1d70:	4016d693          	srai	a3,a3,0x1
    1d74:	40d70733          	sub	a4,a4,a3
    1d78:	01170733          	add	a4,a4,a7
    1d7c:	02eb6263          	bltu	s6,a4,1da0 <main+0x338>
    1d80:	00271793          	slli	a5,a4,0x2
    1d84:	5aca2683          	lw	a3,1452(s4)
    1d88:	00e787b3          	add	a5,a5,a4
    1d8c:	00679793          	slli	a5,a5,0x6
    1d90:	00f78793          	addi	a5,a5,15
    1d94:	00f687b3          	add	a5,a3,a5
    1d98:	01978023          	sb	s9,0(a5)
    1d9c:	594da783          	lw	a5,1428(s11)
    1da0:	00188893          	addi	a7,a7,1
    1da4:	e0f8c2e3          	blt	a7,a5,1ba8 <main+0x140>
    1da8:	00000693          	li	a3,0
    1dac:	1ef05e63          	blez	a5,1fa8 <main+0x540>
    1db0:	5a092503          	lw	a0,1440(s2) # 25a0 <player2_y>
    1db4:	4017d713          	srai	a4,a5,0x1
    1db8:	00a70733          	add	a4,a4,a0
    1dbc:	00d70733          	add	a4,a4,a3
    1dc0:	02eb6463          	bltu	s6,a4,1de8 <main+0x380>
    1dc4:	00271793          	slli	a5,a4,0x2
    1dc8:	5aca2503          	lw	a0,1452(s4)
    1dcc:	00e787b3          	add	a5,a5,a4
    1dd0:	00679793          	slli	a5,a5,0x6
    1dd4:	00878793          	addi	a5,a5,8
    1dd8:	00f507b3          	add	a5,a0,a5
    1ddc:	01978023          	sb	s9,0(a5)
    1de0:	594da783          	lw	a5,1428(s11)
    1de4:	5a092503          	lw	a0,1440(s2)
    1de8:	01f7d713          	srli	a4,a5,0x1f
    1dec:	00f70733          	add	a4,a4,a5
    1df0:	40175713          	srai	a4,a4,0x1
    1df4:	00a70733          	add	a4,a4,a0
    1df8:	00d70733          	add	a4,a4,a3
    1dfc:	1a074263          	bltz	a4,1fa0 <main+0x538>
    1e00:	1aeb4063          	blt	s6,a4,1fa0 <main+0x538>
    1e04:	00271793          	slli	a5,a4,0x2
    1e08:	5aca2503          	lw	a0,1452(s4)
    1e0c:	00e787b3          	add	a5,a5,a4
    1e10:	00679793          	slli	a5,a5,0x6
    1e14:	00878793          	addi	a5,a5,8
    1e18:	00f507b3          	add	a5,a0,a5
    1e1c:	01978023          	sb	s9,0(a5)
    1e20:	594da783          	lw	a5,1428(s11)
    1e24:	5a092503          	lw	a0,1440(s2)
    1e28:	01f7d713          	srli	a4,a5,0x1f
    1e2c:	00f70733          	add	a4,a4,a5
    1e30:	40175713          	srai	a4,a4,0x1
    1e34:	00a70733          	add	a4,a4,a0
    1e38:	00d70733          	add	a4,a4,a3
    1e3c:	16074263          	bltz	a4,1fa0 <main+0x538>
    1e40:	16eb4063          	blt	s6,a4,1fa0 <main+0x538>
    1e44:	00271793          	slli	a5,a4,0x2
    1e48:	5aca2503          	lw	a0,1452(s4)
    1e4c:	00e787b3          	add	a5,a5,a4
    1e50:	00679793          	slli	a5,a5,0x6
    1e54:	00878793          	addi	a5,a5,8
    1e58:	00f507b3          	add	a5,a0,a5
    1e5c:	01978023          	sb	s9,0(a5)
    1e60:	594da783          	lw	a5,1428(s11)
    1e64:	5a092503          	lw	a0,1440(s2)
    1e68:	01f7d713          	srli	a4,a5,0x1f
    1e6c:	00f70733          	add	a4,a4,a5
    1e70:	40175713          	srai	a4,a4,0x1
    1e74:	00a70733          	add	a4,a4,a0
    1e78:	00d70733          	add	a4,a4,a3
    1e7c:	12074263          	bltz	a4,1fa0 <main+0x538>
    1e80:	12eb4063          	blt	s6,a4,1fa0 <main+0x538>
    1e84:	00271793          	slli	a5,a4,0x2
    1e88:	5aca2503          	lw	a0,1452(s4)
    1e8c:	00e787b3          	add	a5,a5,a4
    1e90:	00679793          	slli	a5,a5,0x6
    1e94:	00878793          	addi	a5,a5,8
    1e98:	00f507b3          	add	a5,a0,a5
    1e9c:	01978023          	sb	s9,0(a5)
    1ea0:	594da783          	lw	a5,1428(s11)
    1ea4:	5a092503          	lw	a0,1440(s2)
    1ea8:	01f7d713          	srli	a4,a5,0x1f
    1eac:	00f70733          	add	a4,a4,a5
    1eb0:	40175713          	srai	a4,a4,0x1
    1eb4:	00a70733          	add	a4,a4,a0
    1eb8:	00d70733          	add	a4,a4,a3
    1ebc:	0e074263          	bltz	a4,1fa0 <main+0x538>
    1ec0:	0eeb4063          	blt	s6,a4,1fa0 <main+0x538>
    1ec4:	00271793          	slli	a5,a4,0x2
    1ec8:	5aca2503          	lw	a0,1452(s4)
    1ecc:	00e787b3          	add	a5,a5,a4
    1ed0:	00679793          	slli	a5,a5,0x6
    1ed4:	00878793          	addi	a5,a5,8
    1ed8:	00f507b3          	add	a5,a0,a5
    1edc:	01978023          	sb	s9,0(a5)
    1ee0:	594da783          	lw	a5,1428(s11)
    1ee4:	5a092503          	lw	a0,1440(s2)
    1ee8:	01f7d713          	srli	a4,a5,0x1f
    1eec:	00f70733          	add	a4,a4,a5
    1ef0:	40175713          	srai	a4,a4,0x1
    1ef4:	00a70733          	add	a4,a4,a0
    1ef8:	00d70733          	add	a4,a4,a3
    1efc:	0a074263          	bltz	a4,1fa0 <main+0x538>
    1f00:	0aeb4063          	blt	s6,a4,1fa0 <main+0x538>
    1f04:	00271793          	slli	a5,a4,0x2
    1f08:	5aca2503          	lw	a0,1452(s4)
    1f0c:	00e787b3          	add	a5,a5,a4
    1f10:	00679793          	slli	a5,a5,0x6
    1f14:	00878793          	addi	a5,a5,8
    1f18:	00f507b3          	add	a5,a0,a5
    1f1c:	01978023          	sb	s9,0(a5)
    1f20:	594da783          	lw	a5,1428(s11)
    1f24:	5a092503          	lw	a0,1440(s2)
    1f28:	01f7d713          	srli	a4,a5,0x1f
    1f2c:	00f70733          	add	a4,a4,a5
    1f30:	40175713          	srai	a4,a4,0x1
    1f34:	00a70733          	add	a4,a4,a0
    1f38:	00d70733          	add	a4,a4,a3
    1f3c:	06074263          	bltz	a4,1fa0 <main+0x538>
    1f40:	06eb4063          	blt	s6,a4,1fa0 <main+0x538>
    1f44:	00271793          	slli	a5,a4,0x2
    1f48:	5aca2503          	lw	a0,1452(s4)
    1f4c:	00e787b3          	add	a5,a5,a4
    1f50:	00679793          	slli	a5,a5,0x6
    1f54:	00878793          	addi	a5,a5,8
    1f58:	00f507b3          	add	a5,a0,a5
    1f5c:	01978023          	sb	s9,0(a5)
    1f60:	594da783          	lw	a5,1428(s11)
    1f64:	5a092503          	lw	a0,1440(s2)
    1f68:	01f7d713          	srli	a4,a5,0x1f
    1f6c:	00f70733          	add	a4,a4,a5
    1f70:	40175713          	srai	a4,a4,0x1
    1f74:	00a70733          	add	a4,a4,a0
    1f78:	00d70733          	add	a4,a4,a3
    1f7c:	02eb6263          	bltu	s6,a4,1fa0 <main+0x538>
    1f80:	00271793          	slli	a5,a4,0x2
    1f84:	5aca2503          	lw	a0,1452(s4)
    1f88:	00e787b3          	add	a5,a5,a4
    1f8c:	00679793          	slli	a5,a5,0x6
    1f90:	00878793          	addi	a5,a5,8
    1f94:	00f507b3          	add	a5,a0,a5
    1f98:	01978023          	sb	s9,0(a5)
    1f9c:	594da783          	lw	a5,1428(s11)
    1fa0:	00168693          	addi	a3,a3,1
    1fa4:	e0f6c6e3          	blt	a3,a5,1db0 <main+0x348>
    1fa8:	000027b7          	lui	a5,0x2
    1fac:	5c87a703          	lw	a4,1480(a5) # 25c8 <player1_score>
    1fb0:	00400793          	li	a5,4
    1fb4:	00e7d463          	bge	a5,a4,1fbc <main+0x554>
    1fb8:	5c042023          	sw	zero,1472(s0)
    1fbc:	000027b7          	lui	a5,0x2
    1fc0:	5c47a703          	lw	a4,1476(a5) # 25c4 <player2_score>
    1fc4:	00400793          	li	a5,4
    1fc8:	b0e7dee3          	bge	a5,a4,1ae4 <main+0x7c>
    1fcc:	5c042023          	sw	zero,1472(s0)
    1fd0:	b15ff06f          	j	1ae4 <main+0x7c>

00001fd4 <__subdf3>:
    1fd4:	800007b7          	lui	a5,0x80000
    1fd8:	00f6c6b3          	xor	a3,a3,a5

00001fdc <__adddf3>:
    1fdc:	ffe007b7          	lui	a5,0xffe00
    1fe0:	00159393          	slli	t2,a1,0x1
    1fe4:	00169293          	slli	t0,a3,0x1
    1fe8:	2cf3fc63          	bgeu	t2,a5,22c0 <infnan>
    1fec:	2cf2f263          	bgeu	t0,a5,22b0 <infnan_B_only>
    1ff0:	0153d393          	srli	t2,t2,0x15
    1ff4:	0152d293          	srli	t0,t0,0x15
    1ff8:	28038c63          	beqz	t2,2290 <zero_operand>
    1ffc:	2a028063          	beqz	t0,229c <zero_operand_Y>
    2000:	40538333          	sub	t1,t2,t0
    2004:	0253f263          	bgeu	t2,t0,2028 <__adddf3+0x4c>
    2008:	40600333          	neg	t1,t1
    200c:	00028393          	mv	t2,t0
    2010:	00c54633          	xor	a2,a0,a2
    2014:	00d5c6b3          	xor	a3,a1,a3
    2018:	00a64533          	xor	a0,a2,a0
    201c:	00b6c5b3          	xor	a1,a3,a1
    2020:	00c54633          	xor	a2,a0,a2
    2024:	00d5c6b3          	xor	a3,a1,a3
    2028:	03733293          	sltiu	t0,t1,55
    202c:	14028663          	beqz	t0,2178 <exit>
    2030:	fff7c793          	not	a5,a5
    2034:	01429293          	slli	t0,t0,0x14
    2038:	0055e5b3          	or	a1,a1,t0
    203c:	0056e6b3          	or	a3,a3,t0
    2040:	00b29293          	slli	t0,t0,0xb
    2044:	0055b733          	sltu	a4,a1,t0
    2048:	00f5f5b3          	and	a1,a1,a5
    204c:	00071a63          	bnez	a4,2060 <__adddf3+0x84>
    2050:	00153713          	seqz	a4,a0
    2054:	fff5c593          	not	a1,a1
    2058:	40a00533          	neg	a0,a0
    205c:	00e585b3          	add	a1,a1,a4
    2060:	0056b733          	sltu	a4,a3,t0
    2064:	00f6f6b3          	and	a3,a3,a5
    2068:	00071a63          	bnez	a4,207c <sum>
    206c:	00163713          	seqz	a4,a2
    2070:	fff6c693          	not	a3,a3
    2074:	40c00633          	neg	a2,a2
    2078:	00e686b3          	add	a3,a3,a4

0000207c <sum>:
    207c:	fff38393          	addi	t2,t2,-1
    2080:	00000713          	li	a4,0
    2084:	02000793          	li	a5,32
    2088:	00f36a63          	bltu	t1,a5,209c <sum+0x20>
    208c:	00060713          	mv	a4,a2
    2090:	00068613          	mv	a2,a3
    2094:	41f6d693          	srai	a3,a3,0x1f
    2098:	fe030313          	addi	t1,t1,-32
    209c:	02030863          	beqz	t1,20cc <sum+0x50>
    20a0:	406782b3          	sub	t0,a5,t1
    20a4:	005717b3          	sll	a5,a4,t0
    20a8:	00675733          	srl	a4,a4,t1
    20ac:	00f037b3          	snez	a5,a5
    20b0:	00f76733          	or	a4,a4,a5
    20b4:	005617b3          	sll	a5,a2,t0
    20b8:	00f76733          	or	a4,a4,a5
    20bc:	00665633          	srl	a2,a2,t1
    20c0:	005697b3          	sll	a5,a3,t0
    20c4:	00f66633          	or	a2,a2,a5
    20c8:	4066d6b3          	sra	a3,a3,t1
    20cc:	00c50533          	add	a0,a0,a2
    20d0:	00c53633          	sltu	a2,a0,a2
    20d4:	00c686b3          	add	a3,a3,a2
    20d8:	00d585b3          	add	a1,a1,a3
    20dc:	01f5d293          	srli	t0,a1,0x1f
    20e0:	01f29293          	slli	t0,t0,0x1f
    20e4:	0205d263          	bgez	a1,2108 <pos_or_zero>
    20e8:	40e00733          	neg	a4,a4
    20ec:	00173793          	seqz	a5,a4
    20f0:	fff54513          	not	a0,a0
    20f4:	00f50533          	add	a0,a0,a5
    20f8:	00153613          	seqz	a2,a0
    20fc:	00f67633          	and	a2,a2,a5
    2100:	fff5c593          	not	a1,a1
    2104:	00c585b3          	add	a1,a1,a2

00002108 <pos_or_zero>:
    2108:	001007b7          	lui	a5,0x100
    210c:	06f5e863          	bltu	a1,a5,217c <num_canc>
    2110:	00179793          	slli	a5,a5,0x1
    2114:	02f5ea63          	bltu	a1,a5,2148 <rounding>
    2118:	00177793          	andi	a5,a4,1
    211c:	00175713          	srli	a4,a4,0x1
    2120:	00f76733          	or	a4,a4,a5
    2124:	01f51793          	slli	a5,a0,0x1f
    2128:	00f76733          	or	a4,a4,a5
    212c:	00155513          	srli	a0,a0,0x1
    2130:	01f59793          	slli	a5,a1,0x1f
    2134:	00f56533          	or	a0,a0,a5
    2138:	0015d593          	srli	a1,a1,0x1
    213c:	00138393          	addi	t2,t2,1
    2140:	7fe00793          	li	a5,2046
    2144:	14f3de63          	bge	t2,a5,22a0 <inf>

00002148 <rounding>:
    2148:	800007b7          	lui	a5,0x80000
    214c:	00f76c63          	bltu	a4,a5,2164 <exp_sign_exit>
    2150:	00150513          	addi	a0,a0,1
    2154:	00153613          	seqz	a2,a0
    2158:	00c585b3          	add	a1,a1,a2
    215c:	00f71463          	bne	a4,a5,2164 <exp_sign_exit>
    2160:	ffe57513          	andi	a0,a0,-2

00002164 <exp_sign_exit>:
    2164:	00a5e633          	or	a2,a1,a0
    2168:	10060c63          	beqz	a2,2280 <signed_zero>
    216c:	01439393          	slli	t2,t2,0x14
    2170:	007585b3          	add	a1,a1,t2

00002174 <sign_and_exit>:
    2174:	0055e5b3          	or	a1,a1,t0

00002178 <exit>:
    2178:	00008067          	ret

0000217c <num_canc>:
    217c:	00159593          	slli	a1,a1,0x1
    2180:	01f55793          	srli	a5,a0,0x1f
    2184:	00f5e5b3          	or	a1,a1,a5
    2188:	00151513          	slli	a0,a0,0x1
    218c:	01f75793          	srli	a5,a4,0x1f
    2190:	00f56533          	or	a0,a0,a5
    2194:	00171713          	slli	a4,a4,0x1
    2198:	00038793          	mv	a5,t2
    219c:	fff38393          	addi	t2,t2,-1
    21a0:	00078663          	beqz	a5,21ac <denormal_or_str_canc>
    21a4:	001007b7          	lui	a5,0x100
    21a8:	faf5f0e3          	bgeu	a1,a5,2148 <rounding>

000021ac <denormal_or_str_canc>:
    21ac:	00059863          	bnez	a1,21bc <denormal_or_str_canc+0x10>
    21b0:	00050593          	mv	a1,a0
    21b4:	00000513          	li	a0,0
    21b8:	02000713          	li	a4,32
    21bc:	00058693          	mv	a3,a1
    21c0:	000107b7          	lui	a5,0x10
    21c4:	00f6f663          	bgeu	a3,a5,21d0 <denormal_or_str_canc+0x24>
    21c8:	01069693          	slli	a3,a3,0x10
    21cc:	01070713          	addi	a4,a4,16
    21d0:	00479793          	slli	a5,a5,0x4
    21d4:	00f6f663          	bgeu	a3,a5,21e0 <denormal_or_str_canc+0x34>
    21d8:	00c69693          	slli	a3,a3,0xc
    21dc:	00c70713          	addi	a4,a4,12
    21e0:	00479793          	slli	a5,a5,0x4
    21e4:	00f6f663          	bgeu	a3,a5,21f0 <denormal_or_str_canc+0x44>
    21e8:	00869693          	slli	a3,a3,0x8
    21ec:	00870713          	addi	a4,a4,8
    21f0:	00479793          	slli	a5,a5,0x4
    21f4:	00f6f663          	bgeu	a3,a5,2200 <denormal_or_str_canc+0x54>
    21f8:	00469693          	slli	a3,a3,0x4
    21fc:	00470713          	addi	a4,a4,4
    2200:	00279793          	slli	a5,a5,0x2
    2204:	00f6f663          	bgeu	a3,a5,2210 <denormal_or_str_canc+0x64>
    2208:	00269693          	slli	a3,a3,0x2
    220c:	00270713          	addi	a4,a4,2
    2210:	00179793          	slli	a5,a5,0x1
    2214:	00f6f663          	bgeu	a3,a5,2220 <denormal_or_str_canc+0x74>
    2218:	00169693          	slli	a3,a3,0x1
    221c:	00170713          	addi	a4,a4,1
    2220:	ff570713          	addi	a4,a4,-11
    2224:	04070863          	beqz	a4,2274 <denormal_canc>
    2228:	fe070613          	addi	a2,a4,-32
    222c:	02065263          	bgez	a2,2250 <denormal_or_str_canc+0xa4>
    2230:	00c60613          	addi	a2,a2,12
    2234:	00c05c63          	blez	a2,224c <denormal_or_str_canc+0xa0>
    2238:	00c00693          	li	a3,12
    223c:	40c68633          	sub	a2,a3,a2
    2240:	00e59533          	sll	a0,a1,a4
    2244:	00c5d5b3          	srl	a1,a1,a2
    2248:	0200006f          	j	2268 <denormal_or_str_canc+0xbc>
    224c:	01460613          	addi	a2,a2,20
    2250:	00c595b3          	sll	a1,a1,a2
    2254:	02000693          	li	a3,32
    2258:	40c686b3          	sub	a3,a3,a2
    225c:	00d556b3          	srl	a3,a0,a3
    2260:	00d5e5b3          	or	a1,a1,a3
    2264:	00c51533          	sll	a0,a0,a2
    2268:	40e383b3          	sub	t2,t2,a4
    226c:	0003c463          	bltz	t2,2274 <denormal_canc>
    2270:	ef5ff06f          	j	2164 <exp_sign_exit>

00002274 <denormal_canc>:
    2274:	00000593          	li	a1,0
    2278:	02c0006f          	j	22a4 <sign_zero_xl>

0000227c <both_denormals>:
    227c:	00d5f5b3          	and	a1,a1,a3

00002280 <signed_zero>:
    2280:	01f5d593          	srli	a1,a1,0x1f
    2284:	01f59593          	slli	a1,a1,0x1f

00002288 <zero_xl>:
    2288:	00000513          	li	a0,0
    228c:	eedff06f          	j	2178 <exit>

00002290 <zero_operand>:
    2290:	fe0286e3          	beqz	t0,227c <both_denormals>
    2294:	00068593          	mv	a1,a3
    2298:	00060513          	mv	a0,a2

0000229c <zero_operand_Y>:
    229c:	eddff06f          	j	2178 <exit>

000022a0 <inf>:
    22a0:	7ff005b7          	lui	a1,0x7ff00

000022a4 <sign_zero_xl>:
    22a4:	0055e5b3          	or	a1,a1,t0
    22a8:	00000513          	li	a0,0
    22ac:	ecdff06f          	j	2178 <exit>

000022b0 <infnan_B_only>:
    22b0:	00068593          	mv	a1,a3
    22b4:	00060513          	mv	a0,a2
    22b8:	00028393          	mv	t2,t0
    22bc:	0100006f          	j	22cc <infnan_end>

000022c0 <infnan>:
    22c0:	00f2f663          	bgeu	t0,a5,22cc <infnan_end>
    22c4:	00058693          	mv	a3,a1
    22c8:	00050613          	mv	a2,a0

000022cc <infnan_end>:
    22cc:	00b39393          	slli	t2,t2,0xb
    22d0:	00a3e3b3          	or	t2,t2,a0
    22d4:	00039863          	bnez	t2,22e4 <produce_nan>
    22d8:	00c51663          	bne	a0,a2,22e4 <produce_nan>
    22dc:	00d59463          	bne	a1,a3,22e4 <produce_nan>
    22e0:	e99ff06f          	j	2178 <exit>

000022e4 <produce_nan>:
    22e4:	7ff805b7          	lui	a1,0x7ff80
    22e8:	fa1ff06f          	j	2288 <zero_xl>

000022ec <__fixdfsi>:
    22ec:	80000737          	lui	a4,0x80000
    22f0:	41f5d793          	srai	a5,a1,0x1f
    22f4:	00159593          	slli	a1,a1,0x1
    22f8:	0155d613          	srli	a2,a1,0x15
    22fc:	c0160613          	addi	a2,a2,-1023
    2300:	02064e63          	bltz	a2,233c <undflow>
    2304:	40c00633          	neg	a2,a2
    2308:	01f60613          	addi	a2,a2,31
    230c:	02c05263          	blez	a2,2330 <ovflow>
    2310:	00a59593          	slli	a1,a1,0xa
    2314:	01555513          	srli	a0,a0,0x15
    2318:	00a5e5b3          	or	a1,a1,a0
    231c:	00e5e5b3          	or	a1,a1,a4
    2320:	00c5d533          	srl	a0,a1,a2
    2324:	00f54533          	xor	a0,a0,a5
    2328:	40f50533          	sub	a0,a0,a5
    232c:	00008067          	ret

00002330 <ovflow>:
    2330:	fff70513          	addi	a0,a4,-1 # 7fffffff <_stack_end+0x7fefd947>
    2334:	00f54533          	xor	a0,a0,a5
    2338:	00008067          	ret

0000233c <undflow>:
    233c:	00000513          	li	a0,0
    2340:	00008067          	ret

00002344 <__floatsidf>:
    2344:	41f55793          	srai	a5,a0,0x1f
    2348:	00f545b3          	xor	a1,a0,a5
    234c:	40f585b3          	sub	a1,a1,a5
    2350:	02050863          	beqz	a0,2380 <exit>
    2354:	01f79793          	slli	a5,a5,0x1f
    2358:	41d00613          	li	a2,1053
    235c:	0005c863          	bltz	a1,236c <__floatsidf+0x28>
    2360:	fff60613          	addi	a2,a2,-1
    2364:	00159593          	slli	a1,a1,0x1
    2368:	feb04ce3          	bgtz	a1,2360 <__floatsidf+0x1c>
    236c:	01559513          	slli	a0,a1,0x15
    2370:	00b5d593          	srli	a1,a1,0xb
    2374:	01461613          	slli	a2,a2,0x14
    2378:	00c585b3          	add	a1,a1,a2
    237c:	00f5e5b3          	or	a1,a1,a5

00002380 <exit>:
    2380:	00008067          	ret

00002384 <__muldf3>:
    2384:	00d5c733          	xor	a4,a1,a3
    2388:	800007b7          	lui	a5,0x80000
    238c:	00f772b3          	and	t0,a4,a5
    2390:	7ff00793          	li	a5,2047
    2394:	0145d713          	srli	a4,a1,0x14
    2398:	00f77733          	and	a4,a4,a5
    239c:	0146d313          	srli	t1,a3,0x14
    23a0:	00f37333          	and	t1,t1,a5
    23a4:	10f70863          	beq	a4,a5,24b4 <inf_nan>
    23a8:	10f30663          	beq	t1,a5,24b4 <inf_nan>
    23ac:	0e070e63          	beqz	a4,24a8 <signed_zero>
    23b0:	0e030c63          	beqz	t1,24a8 <signed_zero>

000023b4 <normal_case>:
    23b4:	00670733          	add	a4,a4,t1
    23b8:	fff007b7          	lui	a5,0xfff00
    23bc:	fff7c793          	not	a5,a5
    23c0:	00f5f5b3          	and	a1,a1,a5
    23c4:	00f6f6b3          	and	a3,a3,a5
    23c8:	001007b7          	lui	a5,0x100
    23cc:	00f5e5b3          	or	a1,a1,a5
    23d0:	00f6e6b3          	or	a3,a3,a5
    23d4:	02c58333          	mul	t1,a1,a2
    23d8:	02d507b3          	mul	a5,a0,a3
    23dc:	00f30333          	add	t1,t1,a5
    23e0:	00f337b3          	sltu	a5,t1,a5
    23e4:	02c5b3b3          	mulhu	t2,a1,a2
    23e8:	00f383b3          	add	t2,t2,a5
    23ec:	02d537b3          	mulhu	a5,a0,a3
    23f0:	00f383b3          	add	t2,t2,a5
    23f4:	02c507b3          	mul	a5,a0,a2
    23f8:	02c53633          	mulhu	a2,a0,a2
    23fc:	02d58533          	mul	a0,a1,a3
    2400:	02d5b5b3          	mulhu	a1,a1,a3
    2404:	00660633          	add	a2,a2,t1
    2408:	00663333          	sltu	t1,a2,t1
    240c:	006383b3          	add	t2,t2,t1
    2410:	00750533          	add	a0,a0,t2
    2414:	007533b3          	sltu	t2,a0,t2
    2418:	007585b3          	add	a1,a1,t2
    241c:	00f037b3          	snez	a5,a5
    2420:	00f66633          	or	a2,a2,a5
    2424:	20000393          	li	t2,512
    2428:	0275f263          	bgeu	a1,t2,244c <normal_case+0x98>
    242c:	00159593          	slli	a1,a1,0x1
    2430:	01f55793          	srli	a5,a0,0x1f
    2434:	00f5e5b3          	or	a1,a1,a5
    2438:	00151513          	slli	a0,a0,0x1
    243c:	01f65793          	srli	a5,a2,0x1f
    2440:	00f56533          	or	a0,a0,a5
    2444:	00161613          	slli	a2,a2,0x1
    2448:	fff70713          	addi	a4,a4,-1
    244c:	00b59593          	slli	a1,a1,0xb
    2450:	01555793          	srli	a5,a0,0x15
    2454:	00f5e5b3          	or	a1,a1,a5
    2458:	00b51513          	slli	a0,a0,0xb
    245c:	01565793          	srli	a5,a2,0x15
    2460:	00f56533          	or	a0,a0,a5
    2464:	00b61613          	slli	a2,a2,0xb
    2468:	c0170713          	addi	a4,a4,-1023
    246c:	7fe00313          	li	t1,2046
    2470:	02677863          	bgeu	a4,t1,24a0 <und_ov_flow>
    2474:	01471713          	slli	a4,a4,0x14
    2478:	00e585b3          	add	a1,a1,a4

0000247c <rounding>:
    247c:	800007b7          	lui	a5,0x80000
    2480:	00f66c63          	bltu	a2,a5,2498 <exit>
    2484:	00150513          	addi	a0,a0,1
    2488:	00153313          	seqz	t1,a0
    248c:	006585b3          	add	a1,a1,t1
    2490:	00f61463          	bne	a2,a5,2498 <exit>
    2494:	ffe57513          	andi	a0,a0,-2

00002498 <exit>:
    2498:	0055e5b3          	or	a1,a1,t0
    249c:	00008067          	ret

000024a0 <und_ov_flow>:
    24a0:	04e04463          	bgtz	a4,24e8 <inf>
    24a4:	0040006f          	j	24a8 <signed_zero>

000024a8 <signed_zero>:
    24a8:	00028593          	mv	a1,t0

000024ac <zero_xl>:
    24ac:	00000513          	li	a0,0
    24b0:	00008067          	ret

000024b4 <inf_nan>:
    24b4:	7ff00393          	li	t2,2047
    24b8:	01571793          	slli	a5,a4,0x15
    24bc:	02078c63          	beqz	a5,24f4 <nan>
    24c0:	01531793          	slli	a5,t1,0x15
    24c4:	02078863          	beqz	a5,24f4 <nan>
    24c8:	00771863          	bne	a4,t2,24d8 <inf_nan+0x24>
    24cc:	00c59793          	slli	a5,a1,0xc
    24d0:	00a7e7b3          	or	a5,a5,a0
    24d4:	02079063          	bnez	a5,24f4 <nan>
    24d8:	00731863          	bne	t1,t2,24e8 <inf>
    24dc:	00c69713          	slli	a4,a3,0xc
    24e0:	00c76733          	or	a4,a4,a2
    24e4:	00071863          	bnez	a4,24f4 <nan>

000024e8 <inf>:
    24e8:	7ff005b7          	lui	a1,0x7ff00
    24ec:	0055e5b3          	or	a1,a1,t0
    24f0:	fbdff06f          	j	24ac <zero_xl>

000024f4 <nan>:
    24f4:	7ff805b7          	lui	a1,0x7ff80
    24f8:	fb5ff06f          	j	24ac <zero_xl>

Disassembly of section .data:

000024fc <welcome_msg>:
    24fc:	3d3d                	.insn	2, 0x3d3d
    24fe:	3d3d                	.insn	2, 0x3d3d
    2500:	3d3d                	.insn	2, 0x3d3d
    2502:	3d3d                	.insn	2, 0x3d3d
    2504:	3d3d                	.insn	2, 0x3d3d
    2506:	3d3d                	.insn	2, 0x3d3d
    2508:	3d3d                	.insn	2, 0x3d3d
    250a:	3d3d                	.insn	2, 0x3d3d
    250c:	3d3d                	.insn	2, 0x3d3d
    250e:	3d3d                	.insn	2, 0x3d3d
    2510:	3d3d                	.insn	2, 0x3d3d
    2512:	3d3d                	.insn	2, 0x3d3d
    2514:	3d3d                	.insn	2, 0x3d3d
    2516:	3d3d                	.insn	2, 0x3d3d
    2518:	3d3d                	.insn	2, 0x3d3d
    251a:	3d3d                	.insn	2, 0x3d3d
    251c:	3d3d                	.insn	2, 0x3d3d
    251e:	3d3d                	.insn	2, 0x3d3d
    2520:	3d3d                	.insn	2, 0x3d3d
    2522:	3d3d                	.insn	2, 0x3d3d
    2524:	3d3d                	.insn	2, 0x3d3d
    2526:	3d3d                	.insn	2, 0x3d3d
    2528:	3d3d                	.insn	2, 0x3d3d
    252a:	3d3d                	.insn	2, 0x3d3d
    252c:	3d0a                	.insn	2, 0x3d0a
    252e:	3d3d                	.insn	2, 0x3d3d
    2530:	3d3d                	.insn	2, 0x3d3d
    2532:	5220                	.insn	2, 0x5220
    2534:	5349                	.insn	2, 0x5349
    2536:	20562d43          	.insn	4, 0x20562d43
    253a:	6f42                	.insn	2, 0x6f42
    253c:	552d746f          	jal	s0,d9a8e <__global_pointer+0xd6cfe>
    2540:	2070                	.insn	2, 0x2070
    2542:	7250                	.insn	2, 0x7250
    2544:	7365636f          	jal	t1,58c7a <__global_pointer+0x55eea>
    2548:	6f4e2073          	csrs	0x6f4,t3
    254c:	6f432077          	.insn	4, 0x6f432077
    2550:	706d                	.insn	2, 0x706d
    2552:	656c                	.insn	2, 0x656c
    2554:	6574                	.insn	2, 0x6574
    2556:	3d20                	.insn	2, 0x3d20
    2558:	3d3d                	.insn	2, 0x3d3d
    255a:	3d3d                	.insn	2, 0x3d3d
    255c:	0a3d                	.insn	2, 0x0a3d
    255e:	3d3d                	.insn	2, 0x3d3d
    2560:	3d3d                	.insn	2, 0x3d3d
    2562:	3d3d                	.insn	2, 0x3d3d
    2564:	3d3d                	.insn	2, 0x3d3d
    2566:	3d3d                	.insn	2, 0x3d3d
    2568:	3d3d                	.insn	2, 0x3d3d
    256a:	3d3d                	.insn	2, 0x3d3d
    256c:	3d3d                	.insn	2, 0x3d3d
    256e:	3d3d                	.insn	2, 0x3d3d
    2570:	3d3d                	.insn	2, 0x3d3d
    2572:	3d3d                	.insn	2, 0x3d3d
    2574:	3d3d                	.insn	2, 0x3d3d
    2576:	3d3d                	.insn	2, 0x3d3d
    2578:	3d3d                	.insn	2, 0x3d3d
    257a:	3d3d                	.insn	2, 0x3d3d
    257c:	3d3d                	.insn	2, 0x3d3d
    257e:	3d3d                	.insn	2, 0x3d3d
    2580:	3d3d                	.insn	2, 0x3d3d
    2582:	3d3d                	.insn	2, 0x3d3d
    2584:	3d3d                	.insn	2, 0x3d3d
    2586:	3d3d                	.insn	2, 0x3d3d
    2588:	3d3d                	.insn	2, 0x3d3d
    258a:	3d3d                	.insn	2, 0x3d3d
    258c:	3d3d                	.insn	2, 0x3d3d
    258e:	000a                	.insn	2, 0x000a

00002590 <ball_size>:
    2590:	0001                	.insn	2, 0x0001
	...

00002594 <paddle_height>:
    2594:	0008                	.insn	2, 0x0008
	...

00002598 <ball_y>:
    2598:	0078                	.insn	2, 0x0078
	...

0000259c <ball_x>:
    259c:	00a0                	.insn	2, 0x00a0
	...

000025a0 <player2_y>:
    25a0:	0078                	.insn	2, 0x0078
	...

000025a4 <player1_y>:
    25a4:	0078                	.insn	2, 0x0078
	...

000025a8 <VGA_CTRL>:
    25a8:	0100                	.insn	2, 0x0100
    25aa:	0400                	.insn	2, 0x0400

000025ac <VGA>:
    25ac:	0000                	.insn	2, 0x
    25ae:	0800                	.insn	2, 0x0800

Disassembly of section .srodata.cst8:

000025e0 <.srodata.cst8>:
    25e0:	7ae1                	.insn	2, 0x7ae1
    25e2:	ae14                	.insn	2, 0xae14
    25e4:	3feee147          	.insn	4, 0x3feee147
    25e8:	53f8                	.insn	2, 0x53f8
    25ea:	c49ba5e3          	.insn	4, 0xc49ba5e3
    25ee:	3fd0                	.insn	2, 0x3fd0
    25f0:	5604                	.insn	2, 0x5604
    25f2:	2d0e                	.insn	2, 0x2d0e
    25f4:	9db2                	.insn	2, 0x9db2
    25f6:	d4fe3feb          	.insn	4, 0xd4fe3feb
    25fa:	e978                	.insn	2, 0xe978
    25fc:	3126                	.insn	2, 0x3126
    25fe:	3fe0                	.insn	2, 0x3fe0
    2600:	b439                	.insn	2, 0xb439
    2602:	76c8                	.insn	2, 0x76c8
    2604:	9fbe                	.insn	2, 0x9fbe
    2606:	3fe6                	.insn	2, 0x3fe6
    2608:	1cac                	.insn	2, 0x1cac
    260a:	645a                	.insn	2, 0x645a
    260c:	3fdfdf3b          	.insn	4, 0x3fdfdf3b
    2610:	3958                	.insn	2, 0x3958
    2612:	c8b4                	.insn	2, 0xc8b4
    2614:	be76                	.insn	2, 0xbe76
    2616:	8d503feb          	.insn	4, 0x8d503feb
    261a:	83126e97          	auipc	t4,0x83126
    261e:	3fd0                	.insn	2, 0x3fd0
    2620:	f3b6                	.insn	2, 0xf3b6
    2622:	d4fd                	.insn	2, 0xd4fd
    2624:	e978                	.insn	2, 0xe978
    2626:	3fee                	.insn	2, 0x3fee
    2628:	999a                	.insn	2, 0x999a
    262a:	9999                	.insn	2, 0x9999
    262c:	9999                	.insn	2, 0x9999
    262e:	3fb9                	.insn	2, 0x3fb9

Disassembly of section .rodata.str1.4:

00002630 <.rodata.str1.4>:
    2630:	5b0a                	.insn	2, 0x5b0a
    2632:	5845                	.insn	2, 0x5845
    2634:	54504543          	.insn	4, 0x54504543
    2638:	4f49                	.insn	2, 0x4f49
    263a:	5d4e                	.insn	2, 0x5d4e
    263c:	4920                	.insn	2, 0x4920
    263e:	736e                	.insn	2, 0x736e
    2640:	7274                	.insn	2, 0x7274
    2642:	6375                	.insn	2, 0x6375
    2644:	6974                	.insn	2, 0x6974
    2646:	61206e6f          	jal	t3,8c58 <__global_pointer+0x5ec8>
    264a:	6464                	.insn	2, 0x6464
    264c:	6572                	.insn	2, 0x6572
    264e:	6d207373          	csrrci	t1,0x6d2,0
    2652:	7369                	.insn	2, 0x7369
    2654:	6c61                	.insn	2, 0x6c61
    2656:	6769                	.insn	2, 0x6769
    2658:	6d6e                	.insn	2, 0x6d6e
    265a:	6e65                	.insn	2, 0x6e65
    265c:	2e74                	.insn	2, 0x2e74
    265e:	0020                	.insn	2, 0x0020
    2660:	5b0a                	.insn	2, 0x5b0a
    2662:	5845                	.insn	2, 0x5845
    2664:	54504543          	.insn	4, 0x54504543
    2668:	4f49                	.insn	2, 0x4f49
    266a:	5d4e                	.insn	2, 0x5d4e
    266c:	4920                	.insn	2, 0x4920
    266e:	6c6c                	.insn	2, 0x6c6c
    2670:	6765                	.insn	2, 0x6765
    2672:	6c61                	.insn	2, 0x6c61
    2674:	6920                	.insn	2, 0x6920
    2676:	736e                	.insn	2, 0x736e
    2678:	7274                	.insn	2, 0x7274
    267a:	6375                	.insn	2, 0x6375
    267c:	6974                	.insn	2, 0x6974
    267e:	202e6e6f          	jal	t3,e8880 <__global_pointer+0xe5af0>
    2682:	0000                	.insn	2, 0x
    2684:	5b0a                	.insn	2, 0x5b0a
    2686:	5845                	.insn	2, 0x5845
    2688:	54504543          	.insn	4, 0x54504543
    268c:	4f49                	.insn	2, 0x4f49
    268e:	5d4e                	.insn	2, 0x5d4e
    2690:	5520                	.insn	2, 0x5520
    2692:	6b6e                	.insn	2, 0x6b6e
    2694:	6f6e                	.insn	2, 0x6f6e
    2696:	65206e77          	.insn	4, 0x65206e77
    269a:	7272                	.insn	2, 0x7272
    269c:	202e726f          	jal	tp,e989e <__global_pointer+0xe6b0e>
    26a0:	0000                	.insn	2, 0x
    26a2:	0000                	.insn	2, 0x
    26a4:	7845                	.insn	2, 0x7845
    26a6:	74706563          	bltu	zero,t2,2df0 <__global_pointer+0x60>
    26aa:	6f69                	.insn	2, 0x6f69
    26ac:	206e                	.insn	2, 0x206e
    26ae:	6441                	.insn	2, 0x6441
    26b0:	7264                	.insn	2, 0x7264
    26b2:	7365                	.insn	2, 0x7365
    26b4:	00203a73          	csrrc	s4,frm,zero

Disassembly of section .comment:

00000000 <.comment>:
   0:	3a434347          	.insn	4, 0x3a434347
   4:	2820                	.insn	2, 0x2820
   6:	2029                	.insn	2, 0x2029
   8:	3331                	.insn	2, 0x3331
   a:	322e                	.insn	2, 0x322e
   c:	302e                	.insn	2, 0x302e
	...

Disassembly of section .riscv.attributes:

00000000 <.riscv.attributes>:
   0:	3641                	.insn	2, 0x3641
   2:	0000                	.insn	2, 0x
   4:	7200                	.insn	2, 0x7200
   6:	7369                	.insn	2, 0x7369
   8:	01007663          	bgeu	zero,a6,14 <_isr_routine+0xc>
   c:	002c                	.insn	2, 0x002c
   e:	0000                	.insn	2, 0x
  10:	1004                	.insn	2, 0x1004
  12:	7205                	.insn	2, 0x7205
  14:	3376                	.insn	2, 0x3376
  16:	6932                	.insn	2, 0x6932
  18:	7032                	.insn	2, 0x7032
  1a:	5f31                	.insn	2, 0x5f31
  1c:	326d                	.insn	2, 0x326d
  1e:	3070                	.insn	2, 0x3070
  20:	7a5f 6369 7273      	.insn	6, 0x727363697a5f
  26:	7032                	.insn	2, 0x7032
  28:	5f30                	.insn	2, 0x5f30
  2a:	6d7a                	.insn	2, 0x6d7a
  2c:	756d                	.insn	2, 0x756d
  2e:	316c                	.insn	2, 0x316c
  30:	3070                	.insn	2, 0x3070
  32:	0800                	.insn	2, 0x0800
  34:	0a01                	.insn	2, 0x0a01
  36:	Address 0x36 is out of bounds.

