
main.elf:     file format elf32-littleriscv


Disassembly of section .text:

00000000 <_isr_handler>:
       0:	0080006f          	j	8 <_isr_routine>
       4:	1440006f          	j	148 <_start>

00000008 <_isr_routine>:
       8:	f8010113          	addi	sp,sp,-128
       c:	00112023          	sw	ra,0(sp)
      10:	00312423          	sw	gp,8(sp)
      14:	00412623          	sw	tp,12(sp)
      18:	00512823          	sw	t0,16(sp)
      1c:	00612a23          	sw	t1,20(sp)
      20:	00712c23          	sw	t2,24(sp)
      24:	00812e23          	sw	s0,28(sp)
      28:	02912023          	sw	s1,32(sp)
      2c:	02a12223          	sw	a0,36(sp)
      30:	02b12423          	sw	a1,40(sp)
      34:	02c12623          	sw	a2,44(sp)
      38:	02d12823          	sw	a3,48(sp)
      3c:	02e12a23          	sw	a4,52(sp)
      40:	02f12c23          	sw	a5,56(sp)
      44:	03012e23          	sw	a6,60(sp)
      48:	05112023          	sw	a7,64(sp)
      4c:	05212223          	sw	s2,68(sp)
      50:	05312423          	sw	s3,72(sp)
      54:	05412623          	sw	s4,76(sp)
      58:	05512823          	sw	s5,80(sp)
      5c:	05612a23          	sw	s6,84(sp)
      60:	05712c23          	sw	s7,88(sp)
      64:	05812e23          	sw	s8,92(sp)
      68:	07912023          	sw	s9,96(sp)
      6c:	07a12223          	sw	s10,100(sp)
      70:	07b12423          	sw	s11,104(sp)
      74:	07c12623          	sw	t3,108(sp)
      78:	07d12823          	sw	t4,112(sp)
      7c:	07e12a23          	sw	t5,116(sp)
      80:	07f12c23          	sw	t6,120(sp)
      84:	342022f3          	csrr	t0,mcause
      88:	80000337          	lui	t1,0x80000
      8c:	02536463          	bltu	t1,t0,b4 <external_irq>
      90:	00028833          	add	a6,t0,zero
      94:	00b00313          	li	t1,11
      98:	00628463          	beq	t0,t1,a0 <skip_init_args>
      9c:	34102573          	csrr	a0,mepc

000000a0 <skip_init_args>:
      a0:	310010ef          	jal	13b0 <handle_exception>
      a4:	341022f3          	csrr	t0,mepc
      a8:	00428293          	addi	t0,t0,4
      ac:	34129073          	csrw	mepc,t0
      b0:	0180006f          	j	c8 <restore>

000000b4 <external_irq>:
      b4:	800002b7          	lui	t0,0x80000
      b8:	fff28293          	addi	t0,t0,-1 # 7fffffff <_stack_end+0x7fefd6af>
      bc:	34202373          	csrr	t1,mcause
      c0:	0062f533          	and	a0,t0,t1
      c4:	560010ef          	jal	1624 <handle_interrupt>

000000c8 <restore>:
      c8:	00012083          	lw	ra,0(sp)
      cc:	00812183          	lw	gp,8(sp)
      d0:	00c12203          	lw	tp,12(sp)
      d4:	01012283          	lw	t0,16(sp)
      d8:	01412303          	lw	t1,20(sp)
      dc:	01812383          	lw	t2,24(sp)
      e0:	01c12403          	lw	s0,28(sp)
      e4:	02012483          	lw	s1,32(sp)
      e8:	02412503          	lw	a0,36(sp)
      ec:	02812583          	lw	a1,40(sp)
      f0:	02c12603          	lw	a2,44(sp)
      f4:	03012683          	lw	a3,48(sp)
      f8:	03412703          	lw	a4,52(sp)
      fc:	03812783          	lw	a5,56(sp)
     100:	03c12803          	lw	a6,60(sp)
     104:	04012883          	lw	a7,64(sp)
     108:	04412903          	lw	s2,68(sp)
     10c:	04812983          	lw	s3,72(sp)
     110:	04c12a03          	lw	s4,76(sp)
     114:	05012a83          	lw	s5,80(sp)
     118:	05412b03          	lw	s6,84(sp)
     11c:	05812b83          	lw	s7,88(sp)
     120:	05c12c03          	lw	s8,92(sp)
     124:	06012c83          	lw	s9,96(sp)
     128:	06412d03          	lw	s10,100(sp)
     12c:	06812d83          	lw	s11,104(sp)
     130:	06c12e03          	lw	t3,108(sp)
     134:	07012e83          	lw	t4,112(sp)
     138:	07412f03          	lw	t5,116(sp)
     13c:	07812f83          	lw	t6,120(sp)
     140:	08010113          	addi	sp,sp,128
     144:	30200073          	mret

00000148 <_start>:
     148:	00103117          	auipc	sp,0x103
     14c:	80810113          	addi	sp,sp,-2040 # 102950 <_stack_end>
     150:	00003197          	auipc	gp,0x3
     154:	ed818193          	addi	gp,gp,-296 # 3028 <__global_pointer>
     158:	00002517          	auipc	a0,0x2
     15c:	63c50513          	addi	a0,a0,1596 # 2794 <welcome_msg>
     160:	00400893          	li	a7,4
     164:	00000073          	ecall
     168:	255010ef          	jal	1bbc <main>

0000016c <loop>:
     16c:	0000006f          	j	16c <loop>

00000170 <initialize_game_time>:
     170:	00008067          	ret

00000174 <initialize_game>:
     174:	00003737          	lui	a4,0x3
     178:	86072623          	sw	zero,-1940(a4) # 286c <player2_dy>
     17c:	00003737          	lui	a4,0x3
     180:	ffd00693          	li	a3,-3
     184:	86072823          	sw	zero,-1936(a4) # 2870 <player1_dy>
     188:	00003737          	lui	a4,0x3
     18c:	86d72423          	sw	a3,-1944(a4) # 2868 <ball_dx>
     190:	00003737          	lui	a4,0x3
     194:	07800793          	li	a5,120
     198:	86072223          	sw	zero,-1948(a4) # 2864 <ball_dy>
     19c:	00003737          	lui	a4,0x3
     1a0:	82f72c23          	sw	a5,-1992(a4) # 2838 <player2_y>
     1a4:	00003737          	lui	a4,0x3
     1a8:	82f72e23          	sw	a5,-1988(a4) # 283c <player1_y>
     1ac:	0a000693          	li	a3,160
     1b0:	00003737          	lui	a4,0x3
     1b4:	82d72a23          	sw	a3,-1996(a4) # 2834 <ball_x>
     1b8:	00003737          	lui	a4,0x3
     1bc:	82f72823          	sw	a5,-2000(a4) # 2830 <ball_y>
     1c0:	000037b7          	lui	a5,0x3
     1c4:	8407ae23          	sw	zero,-1956(a5) # 285c <player2_score>
     1c8:	000037b7          	lui	a5,0x3
     1cc:	8607a023          	sw	zero,-1952(a5) # 2860 <player1_score>
     1d0:	000037b7          	lui	a5,0x3
     1d4:	8407aa23          	sw	zero,-1964(a5) # 2854 <game_time>
     1d8:	00100713          	li	a4,1
     1dc:	000037b7          	lui	a5,0x3
     1e0:	84e7ac23          	sw	a4,-1960(a5) # 2858 <game_state>
     1e4:	00008067          	ret

000001e8 <increment_score>:
     1e8:	00100793          	li	a5,1
     1ec:	0ef50463          	beq	a0,a5,2d4 <increment_score+0xec>
     1f0:	00200793          	li	a5,2
     1f4:	0cf51e63          	bne	a0,a5,2d0 <increment_score+0xe8>
     1f8:	00003737          	lui	a4,0x3
     1fc:	85c72783          	lw	a5,-1956(a4) # 285c <player2_score>
     200:	00178793          	addi	a5,a5,1
     204:	84f72e23          	sw	a5,-1956(a4)
     208:	1c078463          	beqz	a5,3d0 <increment_score+0x1e8>
     20c:	00100693          	li	a3,1
     210:	00d79a63          	bne	a5,a3,224 <increment_score+0x3c>
     214:	040007b7          	lui	a5,0x4000
     218:	07900693          	li	a3,121
     21c:	06d7a023          	sw	a3,96(a5) # 4000060 <_stack_end+0x3efd710>
     220:	85c72783          	lw	a5,-1956(a4)
     224:	00200693          	li	a3,2
     228:	00d79a63          	bne	a5,a3,23c <increment_score+0x54>
     22c:	040007b7          	lui	a5,0x4000
     230:	02400693          	li	a3,36
     234:	06d7a023          	sw	a3,96(a5) # 4000060 <_stack_end+0x3efd710>
     238:	85c72783          	lw	a5,-1956(a4)
     23c:	00300693          	li	a3,3
     240:	00d79a63          	bne	a5,a3,254 <increment_score+0x6c>
     244:	040007b7          	lui	a5,0x4000
     248:	03000693          	li	a3,48
     24c:	06d7a023          	sw	a3,96(a5) # 4000060 <_stack_end+0x3efd710>
     250:	85c72783          	lw	a5,-1956(a4)
     254:	00400693          	li	a3,4
     258:	00d79a63          	bne	a5,a3,26c <increment_score+0x84>
     25c:	040007b7          	lui	a5,0x4000
     260:	01900693          	li	a3,25
     264:	06d7a023          	sw	a3,96(a5) # 4000060 <_stack_end+0x3efd710>
     268:	85c72783          	lw	a5,-1956(a4)
     26c:	00500693          	li	a3,5
     270:	00d79a63          	bne	a5,a3,284 <increment_score+0x9c>
     274:	040007b7          	lui	a5,0x4000
     278:	01200693          	li	a3,18
     27c:	06d7a023          	sw	a3,96(a5) # 4000060 <_stack_end+0x3efd710>
     280:	85c72783          	lw	a5,-1956(a4)
     284:	00600693          	li	a3,6
     288:	00d79a63          	bne	a5,a3,29c <increment_score+0xb4>
     28c:	040007b7          	lui	a5,0x4000
     290:	00200693          	li	a3,2
     294:	06d7a023          	sw	a3,96(a5) # 4000060 <_stack_end+0x3efd710>
     298:	85c72783          	lw	a5,-1956(a4)
     29c:	00700693          	li	a3,7
     2a0:	00d79a63          	bne	a5,a3,2b4 <increment_score+0xcc>
     2a4:	040007b7          	lui	a5,0x4000
     2a8:	07800693          	li	a3,120
     2ac:	06d7a023          	sw	a3,96(a5) # 4000060 <_stack_end+0x3efd710>
     2b0:	85c72783          	lw	a5,-1956(a4)
     2b4:	00800693          	li	a3,8
     2b8:	00d79863          	bne	a5,a3,2c8 <increment_score+0xe0>
     2bc:	040006b7          	lui	a3,0x4000
     2c0:	0606a023          	sw	zero,96(a3) # 4000060 <_stack_end+0x3efd710>
     2c4:	85c72783          	lw	a5,-1956(a4)
     2c8:	00900713          	li	a4,9
     2cc:	10e78c63          	beq	a5,a4,3e4 <increment_score+0x1fc>
     2d0:	00008067          	ret
     2d4:	00003737          	lui	a4,0x3
     2d8:	86072783          	lw	a5,-1952(a4) # 2860 <player1_score>
     2dc:	00178793          	addi	a5,a5,1
     2e0:	86f72023          	sw	a5,-1952(a4)
     2e4:	0c078c63          	beqz	a5,3bc <increment_score+0x1d4>
     2e8:	00100693          	li	a3,1
     2ec:	00d79a63          	bne	a5,a3,300 <increment_score+0x118>
     2f0:	040007b7          	lui	a5,0x4000
     2f4:	07900693          	li	a3,121
     2f8:	04d7a823          	sw	a3,80(a5) # 4000050 <_stack_end+0x3efd700>
     2fc:	86072783          	lw	a5,-1952(a4)
     300:	00200693          	li	a3,2
     304:	00d79a63          	bne	a5,a3,318 <increment_score+0x130>
     308:	040007b7          	lui	a5,0x4000
     30c:	02400693          	li	a3,36
     310:	04d7a823          	sw	a3,80(a5) # 4000050 <_stack_end+0x3efd700>
     314:	86072783          	lw	a5,-1952(a4)
     318:	00300693          	li	a3,3
     31c:	00d79a63          	bne	a5,a3,330 <increment_score+0x148>
     320:	040007b7          	lui	a5,0x4000
     324:	03000693          	li	a3,48
     328:	04d7a823          	sw	a3,80(a5) # 4000050 <_stack_end+0x3efd700>
     32c:	86072783          	lw	a5,-1952(a4)
     330:	00400693          	li	a3,4
     334:	00d79a63          	bne	a5,a3,348 <increment_score+0x160>
     338:	040007b7          	lui	a5,0x4000
     33c:	01900693          	li	a3,25
     340:	04d7a823          	sw	a3,80(a5) # 4000050 <_stack_end+0x3efd700>
     344:	86072783          	lw	a5,-1952(a4)
     348:	00500693          	li	a3,5
     34c:	00d79a63          	bne	a5,a3,360 <increment_score+0x178>
     350:	040007b7          	lui	a5,0x4000
     354:	01200693          	li	a3,18
     358:	04d7a823          	sw	a3,80(a5) # 4000050 <_stack_end+0x3efd700>
     35c:	86072783          	lw	a5,-1952(a4)
     360:	00600693          	li	a3,6
     364:	00d79a63          	bne	a5,a3,378 <increment_score+0x190>
     368:	040007b7          	lui	a5,0x4000
     36c:	00200693          	li	a3,2
     370:	04d7a823          	sw	a3,80(a5) # 4000050 <_stack_end+0x3efd700>
     374:	86072783          	lw	a5,-1952(a4)
     378:	00700693          	li	a3,7
     37c:	00d79a63          	bne	a5,a3,390 <increment_score+0x1a8>
     380:	040007b7          	lui	a5,0x4000
     384:	07800693          	li	a3,120
     388:	04d7a823          	sw	a3,80(a5) # 4000050 <_stack_end+0x3efd700>
     38c:	86072783          	lw	a5,-1952(a4)
     390:	00800693          	li	a3,8
     394:	00d79863          	bne	a5,a3,3a4 <increment_score+0x1bc>
     398:	040006b7          	lui	a3,0x4000
     39c:	0406a823          	sw	zero,80(a3) # 4000050 <_stack_end+0x3efd700>
     3a0:	86072783          	lw	a5,-1952(a4)
     3a4:	00900713          	li	a4,9
     3a8:	f2e794e3          	bne	a5,a4,2d0 <increment_score+0xe8>
     3ac:	040007b7          	lui	a5,0x4000
     3b0:	01000713          	li	a4,16
     3b4:	04e7a823          	sw	a4,80(a5) # 4000050 <_stack_end+0x3efd700>
     3b8:	00008067          	ret
     3bc:	040007b7          	lui	a5,0x4000
     3c0:	04000693          	li	a3,64
     3c4:	04d7a823          	sw	a3,80(a5) # 4000050 <_stack_end+0x3efd700>
     3c8:	86072783          	lw	a5,-1952(a4)
     3cc:	f1dff06f          	j	2e8 <increment_score+0x100>
     3d0:	040007b7          	lui	a5,0x4000
     3d4:	04000693          	li	a3,64
     3d8:	06d7a023          	sw	a3,96(a5) # 4000060 <_stack_end+0x3efd710>
     3dc:	85c72783          	lw	a5,-1956(a4)
     3e0:	e2dff06f          	j	20c <increment_score+0x24>
     3e4:	040007b7          	lui	a5,0x4000
     3e8:	01000713          	li	a4,16
     3ec:	06e7a023          	sw	a4,96(a5) # 4000060 <_stack_end+0x3efd710>
     3f0:	00008067          	ret

000003f4 <rotate_ball_vector_counter_clockwise>:
     3f4:	fd010113          	addi	sp,sp,-48
     3f8:	02112623          	sw	ra,44(sp)
     3fc:	02812423          	sw	s0,40(sp)
     400:	02912223          	sw	s1,36(sp)
     404:	03212023          	sw	s2,32(sp)
     408:	03c00793          	li	a5,60
     40c:	28f50463          	beq	a0,a5,694 <rotate_ball_vector_counter_clockwise+0x2a0>
     410:	0ca7c063          	blt	a5,a0,4d0 <rotate_ball_vector_counter_clockwise+0xdc>
     414:	01312e23          	sw	s3,28(sp)
     418:	01412c23          	sw	s4,24(sp)
     41c:	01512a23          	sw	s5,20(sp)
     420:	01e00793          	li	a5,30
     424:	0ef50463          	beq	a0,a5,50c <rotate_ball_vector_counter_clockwise+0x118>
     428:	02d00793          	li	a5,45
     42c:	1cf50e63          	beq	a0,a5,608 <rotate_ball_vector_counter_clockwise+0x214>
     430:	00f00793          	li	a5,15
     434:	0cf51263          	bne	a0,a5,4f8 <rotate_ball_vector_counter_clockwise+0x104>
     438:	000034b7          	lui	s1,0x3
     43c:	8644a503          	lw	a0,-1948(s1) # 2864 <ball_dy>
     440:	01612823          	sw	s6,16(sp)
     444:	01712623          	sw	s7,12(sp)
     448:	00003937          	lui	s2,0x3
     44c:	190020ef          	jal	25dc <__floatsidf>
     450:	00050a13          	mv	s4,a0
     454:	86892503          	lw	a0,-1944(s2) # 2868 <ball_dx>
     458:	00003b37          	lui	s6,0x3
     45c:	00058993          	mv	s3,a1
     460:	17c020ef          	jal	25dc <__floatsidf>
     464:	878b2603          	lw	a2,-1928(s6) # 2878 <player1_dy+0x8>
     468:	87cb2683          	lw	a3,-1924(s6)
     46c:	00003bb7          	lui	s7,0x3
     470:	1ac020ef          	jal	261c <__muldf3>
     474:	880ba603          	lw	a2,-1920(s7) # 2880 <player1_dy+0x10>
     478:	884ba683          	lw	a3,-1916(s7)
     47c:	00058413          	mv	s0,a1
     480:	00050a93          	mv	s5,a0
     484:	00098593          	mv	a1,s3
     488:	000a0513          	mv	a0,s4
     48c:	190020ef          	jal	261c <__muldf3>
     490:	00050613          	mv	a2,a0
     494:	00058693          	mv	a3,a1
     498:	000a8513          	mv	a0,s5
     49c:	00040593          	mv	a1,s0
     4a0:	5cd010ef          	jal	226c <__subdf3>
     4a4:	0e0020ef          	jal	2584 <__fixdfsi>
     4a8:	00050413          	mv	s0,a0
     4ac:	130020ef          	jal	25dc <__floatsidf>
     4b0:	880ba603          	lw	a2,-1920(s7)
     4b4:	884ba683          	lw	a3,-1916(s7)
     4b8:	164020ef          	jal	261c <__muldf3>
     4bc:	878b2603          	lw	a2,-1928(s6)
     4c0:	87cb2683          	lw	a3,-1924(s6)
     4c4:	00050713          	mv	a4,a0
     4c8:	00058793          	mv	a5,a1
     4cc:	0d40006f          	j	5a0 <rotate_ball_vector_counter_clockwise+0x1ac>
     4d0:	04b00793          	li	a5,75
     4d4:	26f50663          	beq	a0,a5,740 <rotate_ball_vector_counter_clockwise+0x34c>
     4d8:	05a00793          	li	a5,90
     4dc:	1af51663          	bne	a0,a5,688 <rotate_ball_vector_counter_clockwise+0x294>
     4e0:	000034b7          	lui	s1,0x3
     4e4:	8644a503          	lw	a0,-1948(s1) # 2864 <ball_dy>
     4e8:	00003937          	lui	s2,0x3
     4ec:	40a00533          	neg	a0,a0
     4f0:	00050413          	mv	s0,a0
     4f4:	0ec0006f          	j	5e0 <rotate_ball_vector_counter_clockwise+0x1ec>
     4f8:	01600793          	li	a5,22
     4fc:	f2a7dee3          	bge	a5,a0,438 <rotate_ball_vector_counter_clockwise+0x44>
     500:	fe950793          	addi	a5,a0,-23
     504:	00e00713          	li	a4,14
     508:	0ef76c63          	bltu	a4,a5,600 <rotate_ball_vector_counter_clockwise+0x20c>
     50c:	000034b7          	lui	s1,0x3
     510:	8644a503          	lw	a0,-1948(s1) # 2864 <ball_dy>
     514:	01612823          	sw	s6,16(sp)
     518:	01712623          	sw	s7,12(sp)
     51c:	00003937          	lui	s2,0x3
     520:	0bc020ef          	jal	25dc <__floatsidf>
     524:	00050a13          	mv	s4,a0
     528:	86892503          	lw	a0,-1944(s2) # 2868 <ball_dx>
     52c:	00003b37          	lui	s6,0x3
     530:	00058993          	mv	s3,a1
     534:	0a8020ef          	jal	25dc <__floatsidf>
     538:	888b2603          	lw	a2,-1912(s6) # 2888 <player1_dy+0x18>
     53c:	88cb2683          	lw	a3,-1908(s6)
     540:	00003bb7          	lui	s7,0x3
     544:	0d8020ef          	jal	261c <__muldf3>
     548:	890ba603          	lw	a2,-1904(s7) # 2890 <player1_dy+0x20>
     54c:	894ba683          	lw	a3,-1900(s7)
     550:	00058413          	mv	s0,a1
     554:	00050a93          	mv	s5,a0
     558:	00098593          	mv	a1,s3
     55c:	000a0513          	mv	a0,s4
     560:	0bc020ef          	jal	261c <__muldf3>
     564:	00050613          	mv	a2,a0
     568:	00058693          	mv	a3,a1
     56c:	000a8513          	mv	a0,s5
     570:	00040593          	mv	a1,s0
     574:	4f9010ef          	jal	226c <__subdf3>
     578:	00c020ef          	jal	2584 <__fixdfsi>
     57c:	00050413          	mv	s0,a0
     580:	05c020ef          	jal	25dc <__floatsidf>
     584:	890ba603          	lw	a2,-1904(s7)
     588:	894ba683          	lw	a3,-1900(s7)
     58c:	090020ef          	jal	261c <__muldf3>
     590:	888b2603          	lw	a2,-1912(s6)
     594:	88cb2683          	lw	a3,-1908(s6)
     598:	00050713          	mv	a4,a0
     59c:	00058793          	mv	a5,a1
     5a0:	000a0513          	mv	a0,s4
     5a4:	00098593          	mv	a1,s3
     5a8:	00070a13          	mv	s4,a4
     5ac:	00078993          	mv	s3,a5
     5b0:	06c020ef          	jal	261c <__muldf3>
     5b4:	00050613          	mv	a2,a0
     5b8:	00058693          	mv	a3,a1
     5bc:	000a0513          	mv	a0,s4
     5c0:	00098593          	mv	a1,s3
     5c4:	4b1010ef          	jal	2274 <__adddf3>
     5c8:	7bd010ef          	jal	2584 <__fixdfsi>
     5cc:	01c12983          	lw	s3,28(sp)
     5d0:	01812a03          	lw	s4,24(sp)
     5d4:	01412a83          	lw	s5,20(sp)
     5d8:	01012b03          	lw	s6,16(sp)
     5dc:	00c12b83          	lw	s7,12(sp)
     5e0:	86892423          	sw	s0,-1944(s2)
     5e4:	02c12083          	lw	ra,44(sp)
     5e8:	02812403          	lw	s0,40(sp)
     5ec:	86a4a223          	sw	a0,-1948(s1)
     5f0:	02012903          	lw	s2,32(sp)
     5f4:	02412483          	lw	s1,36(sp)
     5f8:	03010113          	addi	sp,sp,48
     5fc:	00008067          	ret
     600:	fda50513          	addi	a0,a0,-38
     604:	08a76e63          	bltu	a4,a0,6a0 <rotate_ball_vector_counter_clockwise+0x2ac>
     608:	000034b7          	lui	s1,0x3
     60c:	8644a503          	lw	a0,-1948(s1) # 2864 <ball_dy>
     610:	00003ab7          	lui	s5,0x3
     614:	00003937          	lui	s2,0x3
     618:	7c5010ef          	jal	25dc <__floatsidf>
     61c:	898aa603          	lw	a2,-1896(s5) # 2898 <player1_dy+0x28>
     620:	89caa683          	lw	a3,-1892(s5)
     624:	7f9010ef          	jal	261c <__muldf3>
     628:	00050a13          	mv	s4,a0
     62c:	86892503          	lw	a0,-1944(s2) # 2868 <ball_dx>
     630:	00058993          	mv	s3,a1
     634:	7a9010ef          	jal	25dc <__floatsidf>
     638:	898aa603          	lw	a2,-1896(s5)
     63c:	89caa683          	lw	a3,-1892(s5)
     640:	7dd010ef          	jal	261c <__muldf3>
     644:	000a0613          	mv	a2,s4
     648:	00098693          	mv	a3,s3
     64c:	421010ef          	jal	226c <__subdf3>
     650:	735010ef          	jal	2584 <__fixdfsi>
     654:	00050413          	mv	s0,a0
     658:	785010ef          	jal	25dc <__floatsidf>
     65c:	898aa603          	lw	a2,-1896(s5)
     660:	89caa683          	lw	a3,-1892(s5)
     664:	7b9010ef          	jal	261c <__muldf3>
     668:	000a0613          	mv	a2,s4
     66c:	00098693          	mv	a3,s3
     670:	405010ef          	jal	2274 <__adddf3>
     674:	711010ef          	jal	2584 <__fixdfsi>
     678:	01c12983          	lw	s3,28(sp)
     67c:	01812a03          	lw	s4,24(sp)
     680:	01412a83          	lw	s5,20(sp)
     684:	f5dff06f          	j	5e0 <rotate_ball_vector_counter_clockwise+0x1ec>
     688:	fcb50793          	addi	a5,a0,-53
     68c:	00e00713          	li	a4,14
     690:	0af76463          	bltu	a4,a5,738 <rotate_ball_vector_counter_clockwise+0x344>
     694:	01312e23          	sw	s3,28(sp)
     698:	01412c23          	sw	s4,24(sp)
     69c:	01512a23          	sw	s5,20(sp)
     6a0:	000034b7          	lui	s1,0x3
     6a4:	8644a503          	lw	a0,-1948(s1) # 2864 <ball_dy>
     6a8:	01612823          	sw	s6,16(sp)
     6ac:	01712623          	sw	s7,12(sp)
     6b0:	00003937          	lui	s2,0x3
     6b4:	729010ef          	jal	25dc <__floatsidf>
     6b8:	00050a13          	mv	s4,a0
     6bc:	86892503          	lw	a0,-1944(s2) # 2868 <ball_dx>
     6c0:	00003b37          	lui	s6,0x3
     6c4:	00058993          	mv	s3,a1
     6c8:	715010ef          	jal	25dc <__floatsidf>
     6cc:	8a0b2603          	lw	a2,-1888(s6) # 28a0 <player1_dy+0x30>
     6d0:	8a4b2683          	lw	a3,-1884(s6)
     6d4:	00003bb7          	lui	s7,0x3
     6d8:	745010ef          	jal	261c <__muldf3>
     6dc:	8a8ba603          	lw	a2,-1880(s7) # 28a8 <player1_dy+0x38>
     6e0:	8acba683          	lw	a3,-1876(s7)
     6e4:	00058413          	mv	s0,a1
     6e8:	00050a93          	mv	s5,a0
     6ec:	00098593          	mv	a1,s3
     6f0:	000a0513          	mv	a0,s4
     6f4:	729010ef          	jal	261c <__muldf3>
     6f8:	00050613          	mv	a2,a0
     6fc:	00058693          	mv	a3,a1
     700:	000a8513          	mv	a0,s5
     704:	00040593          	mv	a1,s0
     708:	365010ef          	jal	226c <__subdf3>
     70c:	679010ef          	jal	2584 <__fixdfsi>
     710:	00050413          	mv	s0,a0
     714:	6c9010ef          	jal	25dc <__floatsidf>
     718:	8a8ba603          	lw	a2,-1880(s7)
     71c:	8acba683          	lw	a3,-1876(s7)
     720:	6fd010ef          	jal	261c <__muldf3>
     724:	8a0b2603          	lw	a2,-1888(s6)
     728:	8a4b2683          	lw	a3,-1884(s6)
     72c:	00050713          	mv	a4,a0
     730:	00058793          	mv	a5,a1
     734:	e6dff06f          	j	5a0 <rotate_ball_vector_counter_clockwise+0x1ac>
     738:	fbc50513          	addi	a0,a0,-68
     73c:	daa762e3          	bltu	a4,a0,4e0 <rotate_ball_vector_counter_clockwise+0xec>
     740:	000034b7          	lui	s1,0x3
     744:	8644a503          	lw	a0,-1948(s1) # 2864 <ball_dy>
     748:	01312e23          	sw	s3,28(sp)
     74c:	01412c23          	sw	s4,24(sp)
     750:	01512a23          	sw	s5,20(sp)
     754:	01612823          	sw	s6,16(sp)
     758:	01712623          	sw	s7,12(sp)
     75c:	00003937          	lui	s2,0x3
     760:	67d010ef          	jal	25dc <__floatsidf>
     764:	00050a13          	mv	s4,a0
     768:	86892503          	lw	a0,-1944(s2) # 2868 <ball_dx>
     76c:	00003b37          	lui	s6,0x3
     770:	00058993          	mv	s3,a1
     774:	669010ef          	jal	25dc <__floatsidf>
     778:	8b0b2603          	lw	a2,-1872(s6) # 28b0 <player1_dy+0x40>
     77c:	8b4b2683          	lw	a3,-1868(s6)
     780:	00003bb7          	lui	s7,0x3
     784:	699010ef          	jal	261c <__muldf3>
     788:	8b8ba603          	lw	a2,-1864(s7) # 28b8 <player1_dy+0x48>
     78c:	8bcba683          	lw	a3,-1860(s7)
     790:	00058413          	mv	s0,a1
     794:	00050a93          	mv	s5,a0
     798:	00098593          	mv	a1,s3
     79c:	000a0513          	mv	a0,s4
     7a0:	67d010ef          	jal	261c <__muldf3>
     7a4:	00050613          	mv	a2,a0
     7a8:	00058693          	mv	a3,a1
     7ac:	000a8513          	mv	a0,s5
     7b0:	00040593          	mv	a1,s0
     7b4:	2b9010ef          	jal	226c <__subdf3>
     7b8:	5cd010ef          	jal	2584 <__fixdfsi>
     7bc:	00050413          	mv	s0,a0
     7c0:	61d010ef          	jal	25dc <__floatsidf>
     7c4:	8b8ba603          	lw	a2,-1864(s7)
     7c8:	8bcba683          	lw	a3,-1860(s7)
     7cc:	651010ef          	jal	261c <__muldf3>
     7d0:	8b0b2603          	lw	a2,-1872(s6)
     7d4:	8b4b2683          	lw	a3,-1868(s6)
     7d8:	00050713          	mv	a4,a0
     7dc:	00058793          	mv	a5,a1
     7e0:	dc1ff06f          	j	5a0 <rotate_ball_vector_counter_clockwise+0x1ac>

000007e4 <rotate_ball_vector_clockwise>:
     7e4:	fd010113          	addi	sp,sp,-48
     7e8:	02112623          	sw	ra,44(sp)
     7ec:	02812423          	sw	s0,40(sp)
     7f0:	02912223          	sw	s1,36(sp)
     7f4:	03212023          	sw	s2,32(sp)
     7f8:	03c00793          	li	a5,60
     7fc:	28f50663          	beq	a0,a5,a88 <__heap_size+0x288>
     800:	0ca7c063          	blt	a5,a0,8c0 <__heap_size+0xc0>
     804:	01312e23          	sw	s3,28(sp)
     808:	01412c23          	sw	s4,24(sp)
     80c:	01512a23          	sw	s5,20(sp)
     810:	01e00793          	li	a5,30
     814:	0ef50263          	beq	a0,a5,8f8 <__heap_size+0xf8>
     818:	02d00793          	li	a5,45
     81c:	1cf50e63          	beq	a0,a5,9f8 <__heap_size+0x1f8>
     820:	00f00793          	li	a5,15
     824:	0cf51063          	bne	a0,a5,8e4 <__heap_size+0xe4>
     828:	000034b7          	lui	s1,0x3
     82c:	8644a503          	lw	a0,-1948(s1) # 2864 <ball_dy>
     830:	01612823          	sw	s6,16(sp)
     834:	01712623          	sw	s7,12(sp)
     838:	00003937          	lui	s2,0x3
     83c:	5a1010ef          	jal	25dc <__floatsidf>
     840:	00050a13          	mv	s4,a0
     844:	86892503          	lw	a0,-1944(s2) # 2868 <ball_dx>
     848:	00003b37          	lui	s6,0x3
     84c:	00058993          	mv	s3,a1
     850:	58d010ef          	jal	25dc <__floatsidf>
     854:	878b2603          	lw	a2,-1928(s6) # 2878 <player1_dy+0x8>
     858:	87cb2683          	lw	a3,-1924(s6)
     85c:	00003bb7          	lui	s7,0x3
     860:	5bd010ef          	jal	261c <__muldf3>
     864:	880ba603          	lw	a2,-1920(s7) # 2880 <player1_dy+0x10>
     868:	884ba683          	lw	a3,-1916(s7)
     86c:	00058413          	mv	s0,a1
     870:	00050a93          	mv	s5,a0
     874:	00098593          	mv	a1,s3
     878:	000a0513          	mv	a0,s4
     87c:	5a1010ef          	jal	261c <__muldf3>
     880:	00050613          	mv	a2,a0
     884:	00058693          	mv	a3,a1
     888:	000a8513          	mv	a0,s5
     88c:	00040593          	mv	a1,s0
     890:	1dd010ef          	jal	226c <__subdf3>
     894:	4f1010ef          	jal	2584 <__fixdfsi>
     898:	00050413          	mv	s0,a0
     89c:	541010ef          	jal	25dc <__floatsidf>
     8a0:	880ba603          	lw	a2,-1920(s7)
     8a4:	884ba683          	lw	a3,-1916(s7)
     8a8:	575010ef          	jal	261c <__muldf3>
     8ac:	878b2603          	lw	a2,-1928(s6)
     8b0:	87cb2683          	lw	a3,-1924(s6)
     8b4:	00050713          	mv	a4,a0
     8b8:	00058793          	mv	a5,a1
     8bc:	0d00006f          	j	98c <__heap_size+0x18c>
     8c0:	04b00793          	li	a5,75
     8c4:	26f50863          	beq	a0,a5,b34 <__heap_size+0x334>
     8c8:	05a00793          	li	a5,90
     8cc:	1af51863          	bne	a0,a5,a7c <__heap_size+0x27c>
     8d0:	000034b7          	lui	s1,0x3
     8d4:	8644a783          	lw	a5,-1948(s1) # 2864 <ball_dy>
     8d8:	00003937          	lui	s2,0x3
     8dc:	40f00433          	neg	s0,a5
     8e0:	0f00006f          	j	9d0 <__heap_size+0x1d0>
     8e4:	01600793          	li	a5,22
     8e8:	f4a7d0e3          	bge	a5,a0,828 <__heap_size+0x28>
     8ec:	fe950793          	addi	a5,a0,-23
     8f0:	00e00713          	li	a4,14
     8f4:	0ef76e63          	bltu	a4,a5,9f0 <__heap_size+0x1f0>
     8f8:	000034b7          	lui	s1,0x3
     8fc:	8644a503          	lw	a0,-1948(s1) # 2864 <ball_dy>
     900:	01612823          	sw	s6,16(sp)
     904:	01712623          	sw	s7,12(sp)
     908:	00003937          	lui	s2,0x3
     90c:	4d1010ef          	jal	25dc <__floatsidf>
     910:	00050a13          	mv	s4,a0
     914:	86892503          	lw	a0,-1944(s2) # 2868 <ball_dx>
     918:	00003b37          	lui	s6,0x3
     91c:	00058993          	mv	s3,a1
     920:	4bd010ef          	jal	25dc <__floatsidf>
     924:	888b2603          	lw	a2,-1912(s6) # 2888 <player1_dy+0x18>
     928:	88cb2683          	lw	a3,-1908(s6)
     92c:	00003bb7          	lui	s7,0x3
     930:	4ed010ef          	jal	261c <__muldf3>
     934:	890ba603          	lw	a2,-1904(s7) # 2890 <player1_dy+0x20>
     938:	894ba683          	lw	a3,-1900(s7)
     93c:	00058413          	mv	s0,a1
     940:	00050a93          	mv	s5,a0
     944:	00098593          	mv	a1,s3
     948:	000a0513          	mv	a0,s4
     94c:	4d1010ef          	jal	261c <__muldf3>
     950:	00050613          	mv	a2,a0
     954:	00058693          	mv	a3,a1
     958:	000a8513          	mv	a0,s5
     95c:	00040593          	mv	a1,s0
     960:	10d010ef          	jal	226c <__subdf3>
     964:	421010ef          	jal	2584 <__fixdfsi>
     968:	00050413          	mv	s0,a0
     96c:	471010ef          	jal	25dc <__floatsidf>
     970:	890ba603          	lw	a2,-1904(s7)
     974:	894ba683          	lw	a3,-1900(s7)
     978:	4a5010ef          	jal	261c <__muldf3>
     97c:	888b2603          	lw	a2,-1912(s6)
     980:	88cb2683          	lw	a3,-1908(s6)
     984:	00050713          	mv	a4,a0
     988:	00058793          	mv	a5,a1
     98c:	000a0513          	mv	a0,s4
     990:	00098593          	mv	a1,s3
     994:	00070a13          	mv	s4,a4
     998:	00078993          	mv	s3,a5
     99c:	481010ef          	jal	261c <__muldf3>
     9a0:	00050613          	mv	a2,a0
     9a4:	00058693          	mv	a3,a1
     9a8:	000a0513          	mv	a0,s4
     9ac:	00098593          	mv	a1,s3
     9b0:	0c5010ef          	jal	2274 <__adddf3>
     9b4:	3d1010ef          	jal	2584 <__fixdfsi>
     9b8:	01c12983          	lw	s3,28(sp)
     9bc:	01812a03          	lw	s4,24(sp)
     9c0:	01412a83          	lw	s5,20(sp)
     9c4:	01012b03          	lw	s6,16(sp)
     9c8:	00c12b83          	lw	s7,12(sp)
     9cc:	40a007b3          	neg	a5,a0
     9d0:	86892423          	sw	s0,-1944(s2)
     9d4:	02c12083          	lw	ra,44(sp)
     9d8:	02812403          	lw	s0,40(sp)
     9dc:	86f4a223          	sw	a5,-1948(s1)
     9e0:	02012903          	lw	s2,32(sp)
     9e4:	02412483          	lw	s1,36(sp)
     9e8:	03010113          	addi	sp,sp,48
     9ec:	00008067          	ret
     9f0:	fda50513          	addi	a0,a0,-38
     9f4:	0aa76063          	bltu	a4,a0,a94 <__heap_size+0x294>
     9f8:	000034b7          	lui	s1,0x3
     9fc:	8644a503          	lw	a0,-1948(s1) # 2864 <ball_dy>
     a00:	00003ab7          	lui	s5,0x3
     a04:	00003937          	lui	s2,0x3
     a08:	3d5010ef          	jal	25dc <__floatsidf>
     a0c:	898aa603          	lw	a2,-1896(s5) # 2898 <player1_dy+0x28>
     a10:	89caa683          	lw	a3,-1892(s5)
     a14:	409010ef          	jal	261c <__muldf3>
     a18:	00050a13          	mv	s4,a0
     a1c:	86892503          	lw	a0,-1944(s2) # 2868 <ball_dx>
     a20:	00058993          	mv	s3,a1
     a24:	3b9010ef          	jal	25dc <__floatsidf>
     a28:	898aa603          	lw	a2,-1896(s5)
     a2c:	89caa683          	lw	a3,-1892(s5)
     a30:	3ed010ef          	jal	261c <__muldf3>
     a34:	000a0613          	mv	a2,s4
     a38:	00098693          	mv	a3,s3
     a3c:	031010ef          	jal	226c <__subdf3>
     a40:	345010ef          	jal	2584 <__fixdfsi>
     a44:	00050413          	mv	s0,a0
     a48:	395010ef          	jal	25dc <__floatsidf>
     a4c:	898aa603          	lw	a2,-1896(s5)
     a50:	89caa683          	lw	a3,-1892(s5)
     a54:	3c9010ef          	jal	261c <__muldf3>
     a58:	000a0613          	mv	a2,s4
     a5c:	00098693          	mv	a3,s3
     a60:	015010ef          	jal	2274 <__adddf3>
     a64:	321010ef          	jal	2584 <__fixdfsi>
     a68:	40a007b3          	neg	a5,a0
     a6c:	01c12983          	lw	s3,28(sp)
     a70:	01812a03          	lw	s4,24(sp)
     a74:	01412a83          	lw	s5,20(sp)
     a78:	f59ff06f          	j	9d0 <__heap_size+0x1d0>
     a7c:	fcb50793          	addi	a5,a0,-53
     a80:	00e00713          	li	a4,14
     a84:	0af76463          	bltu	a4,a5,b2c <__heap_size+0x32c>
     a88:	01312e23          	sw	s3,28(sp)
     a8c:	01412c23          	sw	s4,24(sp)
     a90:	01512a23          	sw	s5,20(sp)
     a94:	000034b7          	lui	s1,0x3
     a98:	8644a503          	lw	a0,-1948(s1) # 2864 <ball_dy>
     a9c:	01612823          	sw	s6,16(sp)
     aa0:	01712623          	sw	s7,12(sp)
     aa4:	00003937          	lui	s2,0x3
     aa8:	335010ef          	jal	25dc <__floatsidf>
     aac:	00050a13          	mv	s4,a0
     ab0:	86892503          	lw	a0,-1944(s2) # 2868 <ball_dx>
     ab4:	00003b37          	lui	s6,0x3
     ab8:	00058993          	mv	s3,a1
     abc:	321010ef          	jal	25dc <__floatsidf>
     ac0:	8a0b2603          	lw	a2,-1888(s6) # 28a0 <player1_dy+0x30>
     ac4:	8a4b2683          	lw	a3,-1884(s6)
     ac8:	00003bb7          	lui	s7,0x3
     acc:	351010ef          	jal	261c <__muldf3>
     ad0:	8a8ba603          	lw	a2,-1880(s7) # 28a8 <player1_dy+0x38>
     ad4:	8acba683          	lw	a3,-1876(s7)
     ad8:	00058413          	mv	s0,a1
     adc:	00050a93          	mv	s5,a0
     ae0:	00098593          	mv	a1,s3
     ae4:	000a0513          	mv	a0,s4
     ae8:	335010ef          	jal	261c <__muldf3>
     aec:	00050613          	mv	a2,a0
     af0:	00058693          	mv	a3,a1
     af4:	000a8513          	mv	a0,s5
     af8:	00040593          	mv	a1,s0
     afc:	770010ef          	jal	226c <__subdf3>
     b00:	285010ef          	jal	2584 <__fixdfsi>
     b04:	00050413          	mv	s0,a0
     b08:	2d5010ef          	jal	25dc <__floatsidf>
     b0c:	8a8ba603          	lw	a2,-1880(s7)
     b10:	8acba683          	lw	a3,-1876(s7)
     b14:	309010ef          	jal	261c <__muldf3>
     b18:	8a0b2603          	lw	a2,-1888(s6)
     b1c:	8a4b2683          	lw	a3,-1884(s6)
     b20:	00050713          	mv	a4,a0
     b24:	00058793          	mv	a5,a1
     b28:	e65ff06f          	j	98c <__heap_size+0x18c>
     b2c:	fbc50513          	addi	a0,a0,-68
     b30:	daa760e3          	bltu	a4,a0,8d0 <__heap_size+0xd0>
     b34:	000034b7          	lui	s1,0x3
     b38:	8644a503          	lw	a0,-1948(s1) # 2864 <ball_dy>
     b3c:	01312e23          	sw	s3,28(sp)
     b40:	01412c23          	sw	s4,24(sp)
     b44:	01512a23          	sw	s5,20(sp)
     b48:	01612823          	sw	s6,16(sp)
     b4c:	01712623          	sw	s7,12(sp)
     b50:	00003937          	lui	s2,0x3
     b54:	289010ef          	jal	25dc <__floatsidf>
     b58:	00050a13          	mv	s4,a0
     b5c:	86892503          	lw	a0,-1944(s2) # 2868 <ball_dx>
     b60:	00003b37          	lui	s6,0x3
     b64:	00058993          	mv	s3,a1
     b68:	275010ef          	jal	25dc <__floatsidf>
     b6c:	8b0b2603          	lw	a2,-1872(s6) # 28b0 <player1_dy+0x40>
     b70:	8b4b2683          	lw	a3,-1868(s6)
     b74:	00003bb7          	lui	s7,0x3
     b78:	2a5010ef          	jal	261c <__muldf3>
     b7c:	8b8ba603          	lw	a2,-1864(s7) # 28b8 <player1_dy+0x48>
     b80:	8bcba683          	lw	a3,-1860(s7)
     b84:	00058413          	mv	s0,a1
     b88:	00050a93          	mv	s5,a0
     b8c:	00098593          	mv	a1,s3
     b90:	000a0513          	mv	a0,s4
     b94:	289010ef          	jal	261c <__muldf3>
     b98:	00050613          	mv	a2,a0
     b9c:	00058693          	mv	a3,a1
     ba0:	000a8513          	mv	a0,s5
     ba4:	00040593          	mv	a1,s0
     ba8:	6c4010ef          	jal	226c <__subdf3>
     bac:	1d9010ef          	jal	2584 <__fixdfsi>
     bb0:	00050413          	mv	s0,a0
     bb4:	229010ef          	jal	25dc <__floatsidf>
     bb8:	8b8ba603          	lw	a2,-1864(s7)
     bbc:	8bcba683          	lw	a3,-1860(s7)
     bc0:	25d010ef          	jal	261c <__muldf3>
     bc4:	8b0b2603          	lw	a2,-1872(s6)
     bc8:	8b4b2683          	lw	a3,-1868(s6)
     bcc:	00050713          	mv	a4,a0
     bd0:	00058793          	mv	a5,a1
     bd4:	db9ff06f          	j	98c <__heap_size+0x18c>

00000bd8 <handle_collision>:
     bd8:	fe010113          	addi	sp,sp,-32
     bdc:	00912a23          	sw	s1,20(sp)
     be0:	000034b7          	lui	s1,0x3
     be4:	8644a683          	lw	a3,-1948(s1) # 2864 <ball_dy>
     be8:	00812c23          	sw	s0,24(sp)
     bec:	00003737          	lui	a4,0x3
     bf0:	00112e23          	sw	ra,28(sp)
     bf4:	86872783          	lw	a5,-1944(a4) # 2868 <ball_dx>
     bf8:	00050413          	mv	s0,a0
     bfc:	08069e63          	bnez	a3,c98 <handle_collision+0xc0>
     c00:	40f007b3          	neg	a5,a5
     c04:	86f72423          	sw	a5,-1944(a4)
     c08:	00200793          	li	a5,2
     c0c:	0af40c63          	beq	s0,a5,cc4 <handle_collision+0xec>
     c10:	00300793          	li	a5,3
     c14:	06f41863          	bne	s0,a5,c84 <handle_collision+0xac>
     c18:	01212823          	sw	s2,16(sp)
     c1c:	01312623          	sw	s3,12(sp)
     c20:	00003937          	lui	s2,0x3
     c24:	000039b7          	lui	s3,0x3
     c28:	8309a683          	lw	a3,-2000(s3) # 2830 <ball_y>
     c2c:	83892783          	lw	a5,-1992(s2) # 2838 <player2_y>
     c30:	00003437          	lui	s0,0x3
     c34:	82c42603          	lw	a2,-2004(s0) # 282c <paddle_height>
     c38:	02f6c663          	blt	a3,a5,c64 <handle_collision+0x8c>
     c3c:	01f65713          	srli	a4,a2,0x1f
     c40:	00c70733          	add	a4,a4,a2
     c44:	40175713          	srai	a4,a4,0x1
     c48:	00f707b3          	add	a5,a4,a5
     c4c:	02d7c863          	blt	a5,a3,c7c <handle_collision+0xa4>
     c50:	04b00513          	li	a0,75
     c54:	fa0ff0ef          	jal	3f4 <rotate_ball_vector_counter_clockwise>
     c58:	8309a683          	lw	a3,-2000(s3)
     c5c:	83892783          	lw	a5,-1992(s2)
     c60:	00f6de63          	bge	a3,a5,c7c <handle_collision+0xa4>
     c64:	82c42603          	lw	a2,-2004(s0)
     c68:	01f65713          	srli	a4,a2,0x1f
     c6c:	00c70733          	add	a4,a4,a2
     c70:	40175713          	srai	a4,a4,0x1
     c74:	40e787b3          	sub	a5,a5,a4
     c78:	10f6d263          	bge	a3,a5,d7c <handle_collision+0x1a4>
     c7c:	01012903          	lw	s2,16(sp)
     c80:	00c12983          	lw	s3,12(sp)
     c84:	01c12083          	lw	ra,28(sp)
     c88:	01812403          	lw	s0,24(sp)
     c8c:	01412483          	lw	s1,20(sp)
     c90:	02010113          	addi	sp,sp,32
     c94:	00008067          	ret
     c98:	0c078663          	beqz	a5,d64 <handle_collision+0x18c>
     c9c:	00100793          	li	a5,1
     ca0:	05a00513          	li	a0,90
     ca4:	0a06ca63          	bltz	a3,d58 <handle_collision+0x180>
     ca8:	06f40263          	beq	s0,a5,d0c <handle_collision+0x134>
     cac:	f48ff0ef          	jal	3f4 <rotate_ball_vector_counter_clockwise>
     cb0:	8644a783          	lw	a5,-1948(s1)
     cb4:	40f007b3          	neg	a5,a5
     cb8:	86f4a223          	sw	a5,-1948(s1)
     cbc:	00200793          	li	a5,2
     cc0:	f4f418e3          	bne	s0,a5,c10 <handle_collision+0x38>
     cc4:	01212823          	sw	s2,16(sp)
     cc8:	01312623          	sw	s3,12(sp)
     ccc:	00003937          	lui	s2,0x3
     cd0:	000039b7          	lui	s3,0x3
     cd4:	8309a683          	lw	a3,-2000(s3) # 2830 <ball_y>
     cd8:	83c92783          	lw	a5,-1988(s2) # 283c <player1_y>
     cdc:	00003437          	lui	s0,0x3
     ce0:	82c42603          	lw	a2,-2004(s0) # 282c <paddle_height>
     ce4:	02f6de63          	bge	a3,a5,d20 <handle_collision+0x148>
     ce8:	82c42603          	lw	a2,-2004(s0)
     cec:	01f65713          	srli	a4,a2,0x1f
     cf0:	00c70733          	add	a4,a4,a2
     cf4:	40175713          	srai	a4,a4,0x1
     cf8:	40e787b3          	sub	a5,a5,a4
     cfc:	f8f6c0e3          	blt	a3,a5,c7c <handle_collision+0xa4>
     d00:	01012903          	lw	s2,16(sp)
     d04:	00c12983          	lw	s3,12(sp)
     d08:	04b00513          	li	a0,75
     d0c:	01812403          	lw	s0,24(sp)
     d10:	01c12083          	lw	ra,28(sp)
     d14:	01412483          	lw	s1,20(sp)
     d18:	02010113          	addi	sp,sp,32
     d1c:	ed8ff06f          	j	3f4 <rotate_ball_vector_counter_clockwise>
     d20:	01f65713          	srli	a4,a2,0x1f
     d24:	00c70733          	add	a4,a4,a2
     d28:	40175713          	srai	a4,a4,0x1
     d2c:	00f707b3          	add	a5,a4,a5
     d30:	f4d7c6e3          	blt	a5,a3,c7c <handle_collision+0xa4>
     d34:	04b00513          	li	a0,75
     d38:	ebcff0ef          	jal	3f4 <rotate_ball_vector_counter_clockwise>
     d3c:	8644a703          	lw	a4,-1948(s1)
     d40:	8309a683          	lw	a3,-2000(s3)
     d44:	83c92783          	lw	a5,-1988(s2)
     d48:	40e00733          	neg	a4,a4
     d4c:	86e4a223          	sw	a4,-1948(s1)
     d50:	f2f6d6e3          	bge	a3,a5,c7c <handle_collision+0xa4>
     d54:	f95ff06f          	j	ce8 <handle_collision+0x110>
     d58:	04f40263          	beq	s0,a5,d9c <handle_collision+0x1c4>
     d5c:	e98ff0ef          	jal	3f4 <rotate_ball_vector_counter_clockwise>
     d60:	ea9ff06f          	j	c08 <handle_collision+0x30>
     d64:	00500513          	li	a0,5
     d68:	e8cff0ef          	jal	3f4 <rotate_ball_vector_counter_clockwise>
     d6c:	8644a783          	lw	a5,-1948(s1)
     d70:	40f007b3          	neg	a5,a5
     d74:	86f4a223          	sw	a5,-1948(s1)
     d78:	e91ff06f          	j	c08 <handle_collision+0x30>
     d7c:	04b00513          	li	a0,75
     d80:	e74ff0ef          	jal	3f4 <rotate_ball_vector_counter_clockwise>
     d84:	8644a783          	lw	a5,-1948(s1)
     d88:	01012903          	lw	s2,16(sp)
     d8c:	00c12983          	lw	s3,12(sp)
     d90:	40f007b3          	neg	a5,a5
     d94:	86f4a223          	sw	a5,-1948(s1)
     d98:	eedff06f          	j	c84 <handle_collision+0xac>
     d9c:	e58ff0ef          	jal	3f4 <rotate_ball_vector_counter_clockwise>
     da0:	8644a783          	lw	a5,-1948(s1)
     da4:	40f007b3          	neg	a5,a5
     da8:	86f4a223          	sw	a5,-1948(s1)
     dac:	ed9ff06f          	j	c84 <handle_collision+0xac>

00000db0 <move_ball>:
     db0:	000037b7          	lui	a5,0x3
     db4:	8487a783          	lw	a5,-1976(a5) # 2848 <fast_ball>
     db8:	fe010113          	addi	sp,sp,-32
     dbc:	00812c23          	sw	s0,24(sp)
     dc0:	00912a23          	sw	s1,20(sp)
     dc4:	01412423          	sw	s4,8(sp)
     dc8:	01512223          	sw	s5,4(sp)
     dcc:	00003a37          	lui	s4,0x3
     dd0:	00003ab7          	lui	s5,0x3
     dd4:	00112e23          	sw	ra,28(sp)
     dd8:	01212823          	sw	s2,16(sp)
     ddc:	01312623          	sw	s3,12(sp)
     de0:	868a2403          	lw	s0,-1944(s4) # 2868 <ball_dx>
     de4:	864aa483          	lw	s1,-1948(s5) # 2864 <ball_dy>
     de8:	04078463          	beqz	a5,e30 <move_ball+0x80>
     dec:	00040513          	mv	a0,s0
     df0:	00003937          	lui	s2,0x3
     df4:	7e8010ef          	jal	25dc <__floatsidf>
     df8:	8c092603          	lw	a2,-1856(s2) # 28c0 <player1_dy+0x50>
     dfc:	8c492683          	lw	a3,-1852(s2)
     e00:	474010ef          	jal	2274 <__adddf3>
     e04:	780010ef          	jal	2584 <__fixdfsi>
     e08:	00050413          	mv	s0,a0
     e0c:	00048513          	mv	a0,s1
     e10:	868a2423          	sw	s0,-1944(s4)
     e14:	7c8010ef          	jal	25dc <__floatsidf>
     e18:	8c092603          	lw	a2,-1856(s2)
     e1c:	8c492683          	lw	a3,-1852(s2)
     e20:	454010ef          	jal	2274 <__adddf3>
     e24:	760010ef          	jal	2584 <__fixdfsi>
     e28:	00050493          	mv	s1,a0
     e2c:	86aaa223          	sw	a0,-1948(s5)
     e30:	000039b7          	lui	s3,0x3
     e34:	00003937          	lui	s2,0x3
     e38:	8349a783          	lw	a5,-1996(s3) # 2834 <ball_x>
     e3c:	83092703          	lw	a4,-2000(s2) # 2830 <ball_y>
     e40:	00f407b3          	add	a5,s0,a5
     e44:	00e48733          	add	a4,s1,a4
     e48:	82f9aa23          	sw	a5,-1996(s3)
     e4c:	82e92823          	sw	a4,-2000(s2)
     e50:	06070463          	beqz	a4,eb8 <move_ball+0x108>
     e54:	0f000693          	li	a3,240
     e58:	06d70063          	beq	a4,a3,eb8 <move_ball+0x108>
     e5c:	00800713          	li	a4,8
     e60:	06e78663          	beq	a5,a4,ecc <move_ball+0x11c>
     e64:	13800713          	li	a4,312
     e68:	0ae78263          	beq	a5,a4,f0c <move_ball+0x15c>
     e6c:	10079a63          	bnez	a5,f80 <move_ball+0x1d0>
     e70:	00200513          	li	a0,2
     e74:	b74ff0ef          	jal	1e8 <increment_score>
     e78:	ffd00793          	li	a5,-3
     e7c:	86fa2423          	sw	a5,-1944(s4)
     e80:	0a000793          	li	a5,160
     e84:	82f9aa23          	sw	a5,-1996(s3)
     e88:	07800793          	li	a5,120
     e8c:	860aa223          	sw	zero,-1948(s5)
     e90:	82f92823          	sw	a5,-2000(s2)
     e94:	01c12083          	lw	ra,28(sp)
     e98:	01812403          	lw	s0,24(sp)
     e9c:	01412483          	lw	s1,20(sp)
     ea0:	01012903          	lw	s2,16(sp)
     ea4:	00c12983          	lw	s3,12(sp)
     ea8:	00812a03          	lw	s4,8(sp)
     eac:	00412a83          	lw	s5,4(sp)
     eb0:	02010113          	addi	sp,sp,32
     eb4:	00008067          	ret
     eb8:	08049a63          	bnez	s1,f4c <move_ball+0x19c>
     ebc:	40800433          	neg	s0,s0
     ec0:	868a2423          	sw	s0,-1944(s4)
     ec4:	00800713          	li	a4,8
     ec8:	f8e79ee3          	bne	a5,a4,e64 <move_ball+0xb4>
     ecc:	000037b7          	lui	a5,0x3
     ed0:	82c7a683          	lw	a3,-2004(a5) # 282c <paddle_height>
     ed4:	000037b7          	lui	a5,0x3
     ed8:	83c7a703          	lw	a4,-1988(a5) # 283c <player1_y>
     edc:	01f6d793          	srli	a5,a3,0x1f
     ee0:	00d787b3          	add	a5,a5,a3
     ee4:	83092683          	lw	a3,-2000(s2)
     ee8:	4017d793          	srai	a5,a5,0x1
     eec:	00f70633          	add	a2,a4,a5
     ef0:	fad642e3          	blt	a2,a3,e94 <move_ball+0xe4>
     ef4:	40f70733          	sub	a4,a4,a5
     ef8:	f8e6cee3          	blt	a3,a4,e94 <move_ball+0xe4>
     efc:	00200513          	li	a0,2
     f00:	cd9ff0ef          	jal	bd8 <handle_collision>
     f04:	8349a783          	lw	a5,-1996(s3)
     f08:	f5dff06f          	j	e64 <move_ball+0xb4>
     f0c:	000037b7          	lui	a5,0x3
     f10:	82c7a683          	lw	a3,-2004(a5) # 282c <paddle_height>
     f14:	000037b7          	lui	a5,0x3
     f18:	8387a703          	lw	a4,-1992(a5) # 2838 <player2_y>
     f1c:	01f6d793          	srli	a5,a3,0x1f
     f20:	00d787b3          	add	a5,a5,a3
     f24:	83092683          	lw	a3,-2000(s2)
     f28:	4017d793          	srai	a5,a5,0x1
     f2c:	00e78633          	add	a2,a5,a4
     f30:	f6d642e3          	blt	a2,a3,e94 <move_ball+0xe4>
     f34:	40f70733          	sub	a4,a4,a5
     f38:	f4e6cee3          	blt	a3,a4,e94 <move_ball+0xe4>
     f3c:	00300513          	li	a0,3
     f40:	c99ff0ef          	jal	bd8 <handle_collision>
     f44:	8349a783          	lw	a5,-1996(s3)
     f48:	f25ff06f          	j	e6c <move_ball+0xbc>
     f4c:	00500513          	li	a0,5
     f50:	00040c63          	beqz	s0,f68 <move_ball+0x1b8>
     f54:	05a00513          	li	a0,90
     f58:	0004c863          	bltz	s1,f68 <move_ball+0x1b8>
     f5c:	c98ff0ef          	jal	3f4 <rotate_ball_vector_counter_clockwise>
     f60:	8349a783          	lw	a5,-1996(s3)
     f64:	ef9ff06f          	j	e5c <move_ball+0xac>
     f68:	c8cff0ef          	jal	3f4 <rotate_ball_vector_counter_clockwise>
     f6c:	864aa703          	lw	a4,-1948(s5)
     f70:	8349a783          	lw	a5,-1996(s3)
     f74:	40e00733          	neg	a4,a4
     f78:	86eaa223          	sw	a4,-1948(s5)
     f7c:	ee1ff06f          	j	e5c <move_ball+0xac>
     f80:	14000713          	li	a4,320
     f84:	f0e798e3          	bne	a5,a4,e94 <move_ball+0xe4>
     f88:	00100513          	li	a0,1
     f8c:	a5cff0ef          	jal	1e8 <increment_score>
     f90:	ffd00793          	li	a5,-3
     f94:	86fa2423          	sw	a5,-1944(s4)
     f98:	0a000793          	li	a5,160
     f9c:	860aa223          	sw	zero,-1948(s5)
     fa0:	82f9aa23          	sw	a5,-1996(s3)
     fa4:	ef1ff06f          	j	e94 <move_ball+0xe4>

00000fa8 <move_paddles>:
     fa8:	000037b7          	lui	a5,0x3
     fac:	82c7a683          	lw	a3,-2004(a5) # 282c <paddle_height>
     fb0:	00003637          	lui	a2,0x3
     fb4:	83c62703          	lw	a4,-1988(a2) # 283c <player1_y>
     fb8:	01f6d793          	srli	a5,a3,0x1f
     fbc:	00d787b3          	add	a5,a5,a3
     fc0:	4017d793          	srai	a5,a5,0x1
     fc4:	40f706b3          	sub	a3,a4,a5
     fc8:	40f007b3          	neg	a5,a5
     fcc:	0ed05463          	blez	a3,10b4 <move_paddles+0x10c>
     fd0:	40f706b3          	sub	a3,a4,a5
     fd4:	0ef00593          	li	a1,239
     fd8:	06d5d063          	bge	a1,a3,1038 <move_paddles+0x90>
     fdc:	0f000593          	li	a1,240
     fe0:	00d5de63          	bge	a1,a3,ffc <move_paddles+0x54>
     fe4:	000036b7          	lui	a3,0x3
     fe8:	8506a583          	lw	a1,-1968(a3) # 2850 <reverse_paddles1>
     fec:	000036b7          	lui	a3,0x3
     ff0:	8706a683          	lw	a3,-1936(a3) # 2870 <player1_dy>
     ff4:	12058063          	beqz	a1,1114 <move_paddles+0x16c>
     ff8:	0cd04c63          	bgtz	a3,10d0 <move_paddles+0x128>
     ffc:	000036b7          	lui	a3,0x3
    1000:	8386a703          	lw	a4,-1992(a3) # 2838 <player2_y>
    1004:	00e78633          	add	a2,a5,a4
    1008:	04c05e63          	blez	a2,1064 <move_paddles+0xbc>
    100c:	40f707b3          	sub	a5,a4,a5
    1010:	0ef00613          	li	a2,239
    1014:	06f64e63          	blt	a2,a5,1090 <move_paddles+0xe8>
    1018:	000037b7          	lui	a5,0x3
    101c:	84c7a783          	lw	a5,-1972(a5) # 284c <reverse_paddles2>
    1020:	00003637          	lui	a2,0x3
    1024:	86c62603          	lw	a2,-1940(a2) # 286c <player2_dy>
    1028:	0a078a63          	beqz	a5,10dc <move_paddles+0x134>
    102c:	40c70733          	sub	a4,a4,a2
    1030:	82e6ac23          	sw	a4,-1992(a3)
    1034:	00008067          	ret
    1038:	000036b7          	lui	a3,0x3
    103c:	8506a683          	lw	a3,-1968(a3) # 2850 <reverse_paddles1>
    1040:	000035b7          	lui	a1,0x3
    1044:	8705a583          	lw	a1,-1936(a1) # 2870 <player1_dy>
    1048:	0a068063          	beqz	a3,10e8 <move_paddles+0x140>
    104c:	40b70733          	sub	a4,a4,a1
    1050:	000036b7          	lui	a3,0x3
    1054:	82e62e23          	sw	a4,-1988(a2)
    1058:	8386a703          	lw	a4,-1992(a3) # 2838 <player2_y>
    105c:	00e78633          	add	a2,a5,a4
    1060:	fac046e3          	bgtz	a2,100c <move_paddles+0x64>
    1064:	40f707b3          	sub	a5,a4,a5
    1068:	02060463          	beqz	a2,1090 <move_paddles+0xe8>
    106c:	000037b7          	lui	a5,0x3
    1070:	84c7a603          	lw	a2,-1972(a5) # 284c <reverse_paddles2>
    1074:	000037b7          	lui	a5,0x3
    1078:	86c7a783          	lw	a5,-1940(a5) # 286c <player2_dy>
    107c:	08060463          	beqz	a2,1104 <move_paddles+0x15c>
    1080:	0207d863          	bgez	a5,10b0 <move_paddles+0x108>
    1084:	40f70733          	sub	a4,a4,a5
    1088:	82e6ac23          	sw	a4,-1992(a3)
    108c:	00008067          	ret
    1090:	0f000613          	li	a2,240
    1094:	00f65e63          	bge	a2,a5,10b0 <move_paddles+0x108>
    1098:	000037b7          	lui	a5,0x3
    109c:	84c7a603          	lw	a2,-1972(a5) # 284c <reverse_paddles2>
    10a0:	000037b7          	lui	a5,0x3
    10a4:	86c7a783          	lw	a5,-1940(a5) # 286c <player2_dy>
    10a8:	06060a63          	beqz	a2,111c <move_paddles+0x174>
    10ac:	fcf04ce3          	bgtz	a5,1084 <move_paddles+0xdc>
    10b0:	00008067          	ret
    10b4:	06068863          	beqz	a3,1124 <move_paddles+0x17c>
    10b8:	000036b7          	lui	a3,0x3
    10bc:	8506a583          	lw	a1,-1968(a3) # 2850 <reverse_paddles1>
    10c0:	000036b7          	lui	a3,0x3
    10c4:	8706a683          	lw	a3,-1936(a3) # 2870 <player1_dy>
    10c8:	02058663          	beqz	a1,10f4 <move_paddles+0x14c>
    10cc:	f206d8e3          	bgez	a3,ffc <move_paddles+0x54>
    10d0:	40d70733          	sub	a4,a4,a3
    10d4:	82e62e23          	sw	a4,-1988(a2)
    10d8:	f25ff06f          	j	ffc <move_paddles+0x54>
    10dc:	00c70733          	add	a4,a4,a2
    10e0:	82e6ac23          	sw	a4,-1992(a3)
    10e4:	00008067          	ret
    10e8:	00b70733          	add	a4,a4,a1
    10ec:	82e62e23          	sw	a4,-1988(a2)
    10f0:	f0dff06f          	j	ffc <move_paddles+0x54>
    10f4:	f0d054e3          	blez	a3,ffc <move_paddles+0x54>
    10f8:	00d70733          	add	a4,a4,a3
    10fc:	82e62e23          	sw	a4,-1988(a2)
    1100:	efdff06f          	j	ffc <move_paddles+0x54>
    1104:	faf056e3          	blez	a5,10b0 <move_paddles+0x108>
    1108:	00f70733          	add	a4,a4,a5
    110c:	82e6ac23          	sw	a4,-1992(a3)
    1110:	00008067          	ret
    1114:	ee06d4e3          	bgez	a3,ffc <move_paddles+0x54>
    1118:	fe1ff06f          	j	10f8 <move_paddles+0x150>
    111c:	fe07c6e3          	bltz	a5,1108 <move_paddles+0x160>
    1120:	00008067          	ret
    1124:	40f706b3          	sub	a3,a4,a5
    1128:	eb5ff06f          	j	fdc <move_paddles+0x34>

0000112c <get_sw>:
    112c:	040007b7          	lui	a5,0x4000
    1130:	0107a503          	lw	a0,16(a5) # 4000010 <_stack_end+0x3efd6c0>
    1134:	00008067          	ret

00001138 <get_btn>:
    1138:	040007b7          	lui	a5,0x4000
    113c:	0d07a503          	lw	a0,208(a5) # 40000d0 <_stack_end+0x3efd780>
    1140:	00008067          	ret

00001144 <get_digit>:
    1144:	40b55533          	sra	a0,a0,a1
    1148:	00157513          	andi	a0,a0,1
    114c:	00008067          	ret

00001150 <set_paddles_velocity>:
    1150:	04000737          	lui	a4,0x4000
    1154:	01072783          	lw	a5,16(a4) # 4000010 <_stack_end+0x3efd6c0>
    1158:	0017f713          	andi	a4,a5,1
    115c:	02071e63          	bnez	a4,1198 <set_paddles_velocity+0x48>
    1160:	01e79713          	slli	a4,a5,0x1e
    1164:	41f75713          	srai	a4,a4,0x1f
    1168:	ffb77713          	andi	a4,a4,-5
    116c:	000036b7          	lui	a3,0x3
    1170:	86e6a623          	sw	a4,-1940(a3) # 286c <player2_dy>
    1174:	2007f713          	andi	a4,a5,512
    1178:	1007f793          	andi	a5,a5,256
    117c:	04070063          	beqz	a4,11bc <set_paddles_velocity+0x6c>
    1180:	0017b793          	seqz	a5,a5
    1184:	40f007b3          	neg	a5,a5
    1188:	0057f793          	andi	a5,a5,5
    118c:	00003737          	lui	a4,0x3
    1190:	86f72823          	sw	a5,-1936(a4) # 2870 <player1_dy>
    1194:	00008067          	ret
    1198:	0027f713          	andi	a4,a5,2
    119c:	00173713          	seqz	a4,a4
    11a0:	40e00733          	neg	a4,a4
    11a4:	00577713          	andi	a4,a4,5
    11a8:	000036b7          	lui	a3,0x3
    11ac:	86e6a623          	sw	a4,-1940(a3) # 286c <player2_dy>
    11b0:	2007f713          	andi	a4,a5,512
    11b4:	1007f793          	andi	a5,a5,256
    11b8:	fc0714e3          	bnez	a4,1180 <set_paddles_velocity+0x30>
    11bc:	00f037b3          	snez	a5,a5
    11c0:	40f007b3          	neg	a5,a5
    11c4:	ffb7f793          	andi	a5,a5,-5
    11c8:	00003737          	lui	a4,0x3
    11cc:	86f72823          	sw	a5,-1936(a4) # 2870 <player1_dy>
    11d0:	00008067          	ret

000011d4 <set_special_game_modes>:
    11d4:	04000537          	lui	a0,0x4000
    11d8:	01052783          	lw	a5,16(a0) # 4000010 <_stack_end+0x3efd6c0>
    11dc:	00003537          	lui	a0,0x3
    11e0:	0087f693          	andi	a3,a5,8
    11e4:	0107f713          	andi	a4,a5,16
    11e8:	0027d593          	srli	a1,a5,0x2
    11ec:	0016b693          	seqz	a3,a3
    11f0:	0077d613          	srli	a2,a5,0x7
    11f4:	0015f593          	andi	a1,a1,1
    11f8:	00173713          	seqz	a4,a4
    11fc:	40d006b3          	neg	a3,a3
    1200:	00167613          	andi	a2,a2,1
    1204:	40e00733          	neg	a4,a4
    1208:	fe56f693          	andi	a3,a3,-27
    120c:	84b52823          	sw	a1,-1968(a0) # 2850 <reverse_paddles1>
    1210:	000035b7          	lui	a1,0x3
    1214:	01e68693          	addi	a3,a3,30
    1218:	00677713          	andi	a4,a4,6
    121c:	84c5a623          	sw	a2,-1972(a1) # 284c <reverse_paddles2>
    1220:	00003637          	lui	a2,0x3
    1224:	00270713          	addi	a4,a4,2
    1228:	0057d793          	srli	a5,a5,0x5
    122c:	82d62423          	sw	a3,-2008(a2) # 2828 <ball_size>
    1230:	000036b7          	lui	a3,0x3
    1234:	0017f793          	andi	a5,a5,1
    1238:	82e6a623          	sw	a4,-2004(a3) # 282c <paddle_height>
    123c:	00003737          	lui	a4,0x3
    1240:	84f72423          	sw	a5,-1976(a4) # 2848 <fast_ball>
    1244:	00008067          	ret

00001248 <printc>:
    1248:	04000737          	lui	a4,0x4000
    124c:	04470713          	addi	a4,a4,68 # 4000044 <_stack_end+0x3efd6f4>
    1250:	000106b7          	lui	a3,0x10
    1254:	00072783          	lw	a5,0(a4)
    1258:	fed7eee3          	bltu	a5,a3,1254 <printc+0xc>
    125c:	040007b7          	lui	a5,0x4000
    1260:	04a7a023          	sw	a0,64(a5) # 4000040 <_stack_end+0x3efd6f0>
    1264:	00008067          	ret

00001268 <print>:
    1268:	00054603          	lbu	a2,0(a0)
    126c:	02060863          	beqz	a2,129c <print+0x34>
    1270:	04000737          	lui	a4,0x4000
    1274:	040005b7          	lui	a1,0x4000
    1278:	04470713          	addi	a4,a4,68 # 4000044 <_stack_end+0x3efd6f4>
    127c:	000106b7          	lui	a3,0x10
    1280:	04058593          	addi	a1,a1,64 # 4000040 <_stack_end+0x3efd6f0>
    1284:	00072783          	lw	a5,0(a4)
    1288:	fed7eee3          	bltu	a5,a3,1284 <print+0x1c>
    128c:	00c5a023          	sw	a2,0(a1)
    1290:	00154603          	lbu	a2,1(a0)
    1294:	00150513          	addi	a0,a0,1
    1298:	fe0616e3          	bnez	a2,1284 <print+0x1c>
    129c:	00008067          	ret

000012a0 <print_dec>:
    12a0:	3b9ad737          	lui	a4,0x3b9ad
    12a4:	040006b7          	lui	a3,0x4000
    12a8:	04000337          	lui	t1,0x4000
    12ac:	00a00593          	li	a1,10
    12b0:	00000793          	li	a5,0
    12b4:	a0070713          	addi	a4,a4,-1536 # 3b9aca00 <_stack_end+0x3b8aa0b0>
    12b8:	04468693          	addi	a3,a3,68 # 4000044 <_stack_end+0x3efd6f4>
    12bc:	00010637          	lui	a2,0x10
    12c0:	04030313          	addi	t1,t1,64 # 4000040 <_stack_end+0x3efd6f0>
    12c4:	00a00893          	li	a7,10
    12c8:	04e57063          	bgeu	a0,a4,1308 <print_dec+0x68>
    12cc:	02079e63          	bnez	a5,1308 <print_dec+0x68>
    12d0:	fff58593          	addi	a1,a1,-1
    12d4:	02e57533          	remu	a0,a0,a4
    12d8:	03175733          	divu	a4,a4,a7
    12dc:	fe0596e3          	bnez	a1,12c8 <print_dec+0x28>
    12e0:	02079263          	bnez	a5,1304 <print_dec+0x64>
    12e4:	04000737          	lui	a4,0x4000
    12e8:	04470713          	addi	a4,a4,68 # 4000044 <_stack_end+0x3efd6f4>
    12ec:	000106b7          	lui	a3,0x10
    12f0:	00072783          	lw	a5,0(a4)
    12f4:	fed7eee3          	bltu	a5,a3,12f0 <print_dec+0x50>
    12f8:	040007b7          	lui	a5,0x4000
    12fc:	03000713          	li	a4,48
    1300:	04e7a023          	sw	a4,64(a5) # 4000040 <_stack_end+0x3efd6f0>
    1304:	00008067          	ret
    1308:	02e55833          	divu	a6,a0,a4
    130c:	03080813          	addi	a6,a6,48
    1310:	0ff87813          	zext.b	a6,a6
    1314:	0006a783          	lw	a5,0(a3) # 10000 <__global_pointer+0xcfd8>
    1318:	fec7eee3          	bltu	a5,a2,1314 <print_dec+0x74>
    131c:	01032023          	sw	a6,0(t1)
    1320:	00100793          	li	a5,1
    1324:	fadff06f          	j	12d0 <print_dec+0x30>

00001328 <print_hex32>:
    1328:	04000737          	lui	a4,0x4000
    132c:	04470713          	addi	a4,a4,68 # 4000044 <_stack_end+0x3efd6f4>
    1330:	000106b7          	lui	a3,0x10
    1334:	00072783          	lw	a5,0(a4)
    1338:	fed7eee3          	bltu	a5,a3,1334 <print_hex32+0xc>
    133c:	03000693          	li	a3,48
    1340:	040007b7          	lui	a5,0x4000
    1344:	04000737          	lui	a4,0x4000
    1348:	04d7a023          	sw	a3,64(a5) # 4000040 <_stack_end+0x3efd6f0>
    134c:	04470713          	addi	a4,a4,68 # 4000044 <_stack_end+0x3efd6f4>
    1350:	000106b7          	lui	a3,0x10
    1354:	00072783          	lw	a5,0(a4)
    1358:	fed7eee3          	bltu	a5,a3,1354 <print_hex32+0x2c>
    135c:	04000837          	lui	a6,0x4000
    1360:	04080813          	addi	a6,a6,64 # 4000040 <_stack_end+0x3efd6f0>
    1364:	04000737          	lui	a4,0x4000
    1368:	07800793          	li	a5,120
    136c:	00f82023          	sw	a5,0(a6)
    1370:	01c00613          	li	a2,28
    1374:	00900313          	li	t1,9
    1378:	04470713          	addi	a4,a4,68 # 4000044 <_stack_end+0x3efd6f4>
    137c:	000106b7          	lui	a3,0x10
    1380:	ffc00893          	li	a7,-4
    1384:	00c557b3          	srl	a5,a0,a2
    1388:	00f7f793          	andi	a5,a5,15
    138c:	03778593          	addi	a1,a5,55
    1390:	00f36463          	bltu	t1,a5,1398 <print_hex32+0x70>
    1394:	03078593          	addi	a1,a5,48
    1398:	00072783          	lw	a5,0(a4)
    139c:	fed7eee3          	bltu	a5,a3,1398 <print_hex32+0x70>
    13a0:	00b82023          	sw	a1,0(a6)
    13a4:	ffc60613          	addi	a2,a2,-4 # fffc <__global_pointer+0xcfd4>
    13a8:	fd161ee3          	bne	a2,a7,1384 <print_hex32+0x5c>
    13ac:	00008067          	ret

000013b0 <handle_exception>:
    13b0:	00200793          	li	a5,2
    13b4:	18f80863          	beq	a6,a5,1544 <handle_exception+0x194>
    13b8:	00b00793          	li	a5,11
    13bc:	12f80063          	beq	a6,a5,14dc <handle_exception+0x12c>
    13c0:	04000737          	lui	a4,0x4000
    13c4:	14081463          	bnez	a6,150c <handle_exception+0x15c>
    13c8:	04000837          	lui	a6,0x4000
    13cc:	00003637          	lui	a2,0x3
    13d0:	8c860613          	addi	a2,a2,-1848 # 28c8 <player1_dy+0x58>
    13d4:	00a00593          	li	a1,10
    13d8:	04470713          	addi	a4,a4,68 # 4000044 <_stack_end+0x3efd6f4>
    13dc:	000106b7          	lui	a3,0x10
    13e0:	04080813          	addi	a6,a6,64 # 4000040 <_stack_end+0x3efd6f0>
    13e4:	00072783          	lw	a5,0(a4)
    13e8:	fed7eee3          	bltu	a5,a3,13e4 <handle_exception+0x34>
    13ec:	00b82023          	sw	a1,0(a6)
    13f0:	00164583          	lbu	a1,1(a2)
    13f4:	00160613          	addi	a2,a2,1
    13f8:	fe0596e3          	bnez	a1,13e4 <handle_exception+0x34>
    13fc:	04000737          	lui	a4,0x4000
    1400:	04000837          	lui	a6,0x4000
    1404:	00003637          	lui	a2,0x3
    1408:	93c60613          	addi	a2,a2,-1732 # 293c <player1_dy+0xcc>
    140c:	04500593          	li	a1,69
    1410:	04470713          	addi	a4,a4,68 # 4000044 <_stack_end+0x3efd6f4>
    1414:	000106b7          	lui	a3,0x10
    1418:	04080813          	addi	a6,a6,64 # 4000040 <_stack_end+0x3efd6f0>
    141c:	00072783          	lw	a5,0(a4)
    1420:	fed7eee3          	bltu	a5,a3,141c <handle_exception+0x6c>
    1424:	00b82023          	sw	a1,0(a6)
    1428:	00164583          	lbu	a1,1(a2)
    142c:	00160613          	addi	a2,a2,1
    1430:	fe0596e3          	bnez	a1,141c <handle_exception+0x6c>
    1434:	04000737          	lui	a4,0x4000
    1438:	04470713          	addi	a4,a4,68 # 4000044 <_stack_end+0x3efd6f4>
    143c:	000106b7          	lui	a3,0x10
    1440:	00072783          	lw	a5,0(a4)
    1444:	fed7eee3          	bltu	a5,a3,1440 <handle_exception+0x90>
    1448:	03000693          	li	a3,48
    144c:	040007b7          	lui	a5,0x4000
    1450:	04000737          	lui	a4,0x4000
    1454:	04d7a023          	sw	a3,64(a5) # 4000040 <_stack_end+0x3efd6f0>
    1458:	04470713          	addi	a4,a4,68 # 4000044 <_stack_end+0x3efd6f4>
    145c:	000106b7          	lui	a3,0x10
    1460:	00072783          	lw	a5,0(a4)
    1464:	fed7eee3          	bltu	a5,a3,1460 <handle_exception+0xb0>
    1468:	04000837          	lui	a6,0x4000
    146c:	04080813          	addi	a6,a6,64 # 4000040 <_stack_end+0x3efd6f0>
    1470:	04000737          	lui	a4,0x4000
    1474:	07800793          	li	a5,120
    1478:	00f82023          	sw	a5,0(a6)
    147c:	01c00613          	li	a2,28
    1480:	00900313          	li	t1,9
    1484:	04470713          	addi	a4,a4,68 # 4000044 <_stack_end+0x3efd6f4>
    1488:	000106b7          	lui	a3,0x10
    148c:	ffc00893          	li	a7,-4
    1490:	00c557b3          	srl	a5,a0,a2
    1494:	00f7f793          	andi	a5,a5,15
    1498:	03778593          	addi	a1,a5,55
    149c:	00f36463          	bltu	t1,a5,14a4 <handle_exception+0xf4>
    14a0:	03078593          	addi	a1,a5,48
    14a4:	00072783          	lw	a5,0(a4)
    14a8:	fed7eee3          	bltu	a5,a3,14a4 <handle_exception+0xf4>
    14ac:	00b82023          	sw	a1,0(a6)
    14b0:	ffc60613          	addi	a2,a2,-4
    14b4:	fd161ee3          	bne	a2,a7,1490 <handle_exception+0xe0>
    14b8:	04000737          	lui	a4,0x4000
    14bc:	04470713          	addi	a4,a4,68 # 4000044 <_stack_end+0x3efd6f4>
    14c0:	000106b7          	lui	a3,0x10
    14c4:	00072783          	lw	a5,0(a4)
    14c8:	fed7eee3          	bltu	a5,a3,14c4 <handle_exception+0x114>
    14cc:	040007b7          	lui	a5,0x4000
    14d0:	00a00713          	li	a4,10
    14d4:	04e7a023          	sw	a4,64(a5) # 4000040 <_stack_end+0x3efd6f0>
    14d8:	0000006f          	j	14d8 <handle_exception+0x128>
    14dc:	00400793          	li	a5,4
    14e0:	0af88063          	beq	a7,a5,1580 <handle_exception+0x1d0>
    14e4:	0d089a63          	bne	a7,a6,15b8 <handle_exception+0x208>
    14e8:	04000737          	lui	a4,0x4000
    14ec:	04470713          	addi	a4,a4,68 # 4000044 <_stack_end+0x3efd6f4>
    14f0:	000106b7          	lui	a3,0x10
    14f4:	00072783          	lw	a5,0(a4)
    14f8:	fed7eee3          	bltu	a5,a3,14f4 <handle_exception+0x144>
    14fc:	040007b7          	lui	a5,0x4000
    1500:	0ff57513          	zext.b	a0,a0
    1504:	04a7a023          	sw	a0,64(a5) # 4000040 <_stack_end+0x3efd6f0>
    1508:	00008067          	ret
    150c:	04000837          	lui	a6,0x4000
    1510:	00003637          	lui	a2,0x3
    1514:	91c60613          	addi	a2,a2,-1764 # 291c <player1_dy+0xac>
    1518:	00a00593          	li	a1,10
    151c:	04470713          	addi	a4,a4,68
    1520:	000106b7          	lui	a3,0x10
    1524:	04080813          	addi	a6,a6,64 # 4000040 <_stack_end+0x3efd6f0>
    1528:	00072783          	lw	a5,0(a4)
    152c:	fed7eee3          	bltu	a5,a3,1528 <handle_exception+0x178>
    1530:	00b82023          	sw	a1,0(a6)
    1534:	00164583          	lbu	a1,1(a2)
    1538:	00160613          	addi	a2,a2,1
    153c:	fe0596e3          	bnez	a1,1528 <handle_exception+0x178>
    1540:	ebdff06f          	j	13fc <handle_exception+0x4c>
    1544:	04000737          	lui	a4,0x4000
    1548:	04000837          	lui	a6,0x4000
    154c:	00003637          	lui	a2,0x3
    1550:	8f860613          	addi	a2,a2,-1800 # 28f8 <player1_dy+0x88>
    1554:	00a00593          	li	a1,10
    1558:	04470713          	addi	a4,a4,68 # 4000044 <_stack_end+0x3efd6f4>
    155c:	000106b7          	lui	a3,0x10
    1560:	04080813          	addi	a6,a6,64 # 4000040 <_stack_end+0x3efd6f0>
    1564:	00072783          	lw	a5,0(a4)
    1568:	fed7eee3          	bltu	a5,a3,1564 <handle_exception+0x1b4>
    156c:	00b82023          	sw	a1,0(a6)
    1570:	00164583          	lbu	a1,1(a2)
    1574:	00160613          	addi	a2,a2,1
    1578:	fe0596e3          	bnez	a1,1564 <handle_exception+0x1b4>
    157c:	e81ff06f          	j	13fc <handle_exception+0x4c>
    1580:	00054603          	lbu	a2,0(a0)
    1584:	02060a63          	beqz	a2,15b8 <handle_exception+0x208>
    1588:	04000737          	lui	a4,0x4000
    158c:	040005b7          	lui	a1,0x4000
    1590:	04470713          	addi	a4,a4,68 # 4000044 <_stack_end+0x3efd6f4>
    1594:	000106b7          	lui	a3,0x10
    1598:	04058593          	addi	a1,a1,64 # 4000040 <_stack_end+0x3efd6f0>
    159c:	00072783          	lw	a5,0(a4)
    15a0:	fed7eee3          	bltu	a5,a3,159c <handle_exception+0x1ec>
    15a4:	00c5a023          	sw	a2,0(a1)
    15a8:	00154603          	lbu	a2,1(a0)
    15ac:	00150513          	addi	a0,a0,1
    15b0:	fe0616e3          	bnez	a2,159c <handle_exception+0x1ec>
    15b4:	00008067          	ret
    15b8:	00008067          	ret

000015bc <nextprime>:
    15bc:	00200713          	li	a4,2
    15c0:	00050793          	mv	a5,a0
    15c4:	02a74063          	blt	a4,a0,15e4 <nextprime+0x28>
    15c8:	00100513          	li	a0,1
    15cc:	00f05a63          	blez	a5,15e0 <nextprime+0x24>
    15d0:	fff78793          	addi	a5,a5,-1
    15d4:	00f037b3          	snez	a5,a5
    15d8:	00278513          	addi	a0,a5,2
    15dc:	00008067          	ret
    15e0:	00008067          	ret
    15e4:	00150793          	addi	a5,a0,1
    15e8:	0017e513          	ori	a0,a5,1
    15ec:	00300613          	li	a2,3
    15f0:	02c567b3          	rem	a5,a0,a2
    15f4:	40155693          	srai	a3,a0,0x1
    15f8:	02078263          	beqz	a5,161c <nextprime+0x60>
    15fc:	00268693          	addi	a3,a3,2 # 10002 <__global_pointer+0xcfda>
    1600:	00300793          	li	a5,3
    1604:	00c0006f          	j	1610 <nextprime+0x54>
    1608:	02f56733          	rem	a4,a0,a5
    160c:	00070863          	beqz	a4,161c <nextprime+0x60>
    1610:	00178793          	addi	a5,a5,1
    1614:	fef69ae3          	bne	a3,a5,1608 <nextprime+0x4c>
    1618:	00008067          	ret
    161c:	00250513          	addi	a0,a0,2
    1620:	fd1ff06f          	j	15f0 <nextprime+0x34>

00001624 <handle_interrupt>:
    1624:	00008067          	ret

00001628 <reset_screen>:
    1628:	000136b7          	lui	a3,0x13
    162c:	00000793          	li	a5,0
    1630:	00003637          	lui	a2,0x3
    1634:	c0068693          	addi	a3,a3,-1024 # 12c00 <__global_pointer+0xfbd8>
    1638:	84462703          	lw	a4,-1980(a2) # 2844 <VGA>
    163c:	00f70733          	add	a4,a4,a5
    1640:	00070023          	sb	zero,0(a4)
    1644:	00178793          	addi	a5,a5,1
    1648:	fed798e3          	bne	a5,a3,1638 <reset_screen+0x10>
    164c:	00008067          	ret

00001650 <draw_ball>:
    1650:	00003eb7          	lui	t4,0x3
    1654:	828ea583          	lw	a1,-2008(t4) # 2828 <ball_size>
    1658:	00000893          	li	a7,0
    165c:	00003537          	lui	a0,0x3
    1660:	06b05263          	blez	a1,16c4 <draw_ball+0x74>
    1664:	13f00813          	li	a6,319
    1668:	00003e37          	lui	t3,0x3
    166c:	0ef00313          	li	t1,239
    1670:	00003fb7          	lui	t6,0x3
    1674:	fff00f13          	li	t5,-1
    1678:	00000713          	li	a4,0
    167c:	83452783          	lw	a5,-1996(a0) # 2834 <ball_x>
    1680:	00f707b3          	add	a5,a4,a5
    1684:	00170713          	addi	a4,a4,1
    1688:	02f86863          	bltu	a6,a5,16b8 <draw_ball+0x68>
    168c:	830e2603          	lw	a2,-2000(t3) # 2830 <ball_y>
    1690:	00c88633          	add	a2,a7,a2
    1694:	00261693          	slli	a3,a2,0x2
    1698:	00c686b3          	add	a3,a3,a2
    169c:	00669693          	slli	a3,a3,0x6
    16a0:	00f686b3          	add	a3,a3,a5
    16a4:	00c36a63          	bltu	t1,a2,16b8 <draw_ball+0x68>
    16a8:	844fa783          	lw	a5,-1980(t6) # 2844 <VGA>
    16ac:	00d787b3          	add	a5,a5,a3
    16b0:	01e78023          	sb	t5,0(a5)
    16b4:	828ea583          	lw	a1,-2008(t4)
    16b8:	fcb742e3          	blt	a4,a1,167c <draw_ball+0x2c>
    16bc:	00188893          	addi	a7,a7,1
    16c0:	fab8cce3          	blt	a7,a1,1678 <draw_ball+0x28>
    16c4:	00008067          	ret

000016c8 <draw_paddle1>:
    16c8:	000038b7          	lui	a7,0x3
    16cc:	82c8a783          	lw	a5,-2004(a7) # 282c <paddle_height>
    16d0:	00000593          	li	a1,0
    16d4:	00003837          	lui	a6,0x3
    16d8:	20f05863          	blez	a5,18e8 <draw_paddle1+0x220>
    16dc:	0ef00513          	li	a0,239
    16e0:	00003e37          	lui	t3,0x3
    16e4:	fff00313          	li	t1,-1
    16e8:	83c82683          	lw	a3,-1988(a6) # 283c <player1_y>
    16ec:	01f7d613          	srli	a2,a5,0x1f
    16f0:	00f60733          	add	a4,a2,a5
    16f4:	40175713          	srai	a4,a4,0x1
    16f8:	40e68733          	sub	a4,a3,a4
    16fc:	00b70733          	add	a4,a4,a1
    1700:	02e56663          	bltu	a0,a4,172c <draw_paddle1+0x64>
    1704:	00271793          	slli	a5,a4,0x2
    1708:	844e2683          	lw	a3,-1980(t3) # 2844 <VGA>
    170c:	00e787b3          	add	a5,a5,a4
    1710:	00679793          	slli	a5,a5,0x6
    1714:	00878793          	addi	a5,a5,8
    1718:	00f687b3          	add	a5,a3,a5
    171c:	00678023          	sb	t1,0(a5)
    1720:	82c8a783          	lw	a5,-2004(a7)
    1724:	83c82683          	lw	a3,-1988(a6)
    1728:	01f7d613          	srli	a2,a5,0x1f
    172c:	00f60633          	add	a2,a2,a5
    1730:	40165613          	srai	a2,a2,0x1
    1734:	40c686b3          	sub	a3,a3,a2
    1738:	00b686b3          	add	a3,a3,a1
    173c:	1a06c263          	bltz	a3,18e0 <draw_paddle1+0x218>
    1740:	1ad54063          	blt	a0,a3,18e0 <draw_paddle1+0x218>
    1744:	00269793          	slli	a5,a3,0x2
    1748:	844e2703          	lw	a4,-1980(t3)
    174c:	00d787b3          	add	a5,a5,a3
    1750:	00679793          	slli	a5,a5,0x6
    1754:	00978793          	addi	a5,a5,9
    1758:	00f707b3          	add	a5,a4,a5
    175c:	00678023          	sb	t1,0(a5)
    1760:	82c8a783          	lw	a5,-2004(a7)
    1764:	83c82703          	lw	a4,-1988(a6)
    1768:	01f7d693          	srli	a3,a5,0x1f
    176c:	00f686b3          	add	a3,a3,a5
    1770:	4016d693          	srai	a3,a3,0x1
    1774:	40d70733          	sub	a4,a4,a3
    1778:	00b70733          	add	a4,a4,a1
    177c:	16074263          	bltz	a4,18e0 <draw_paddle1+0x218>
    1780:	16e54063          	blt	a0,a4,18e0 <draw_paddle1+0x218>
    1784:	00271793          	slli	a5,a4,0x2
    1788:	844e2683          	lw	a3,-1980(t3)
    178c:	00e787b3          	add	a5,a5,a4
    1790:	00679793          	slli	a5,a5,0x6
    1794:	00a78793          	addi	a5,a5,10
    1798:	00f687b3          	add	a5,a3,a5
    179c:	00678023          	sb	t1,0(a5)
    17a0:	82c8a783          	lw	a5,-2004(a7)
    17a4:	83c82703          	lw	a4,-1988(a6)
    17a8:	01f7d693          	srli	a3,a5,0x1f
    17ac:	00f686b3          	add	a3,a3,a5
    17b0:	4016d693          	srai	a3,a3,0x1
    17b4:	40d70733          	sub	a4,a4,a3
    17b8:	00b70733          	add	a4,a4,a1
    17bc:	12074263          	bltz	a4,18e0 <draw_paddle1+0x218>
    17c0:	12e54063          	blt	a0,a4,18e0 <draw_paddle1+0x218>
    17c4:	00271793          	slli	a5,a4,0x2
    17c8:	844e2683          	lw	a3,-1980(t3)
    17cc:	00e787b3          	add	a5,a5,a4
    17d0:	00679793          	slli	a5,a5,0x6
    17d4:	00b78793          	addi	a5,a5,11
    17d8:	00f687b3          	add	a5,a3,a5
    17dc:	00678023          	sb	t1,0(a5)
    17e0:	82c8a783          	lw	a5,-2004(a7)
    17e4:	83c82703          	lw	a4,-1988(a6)
    17e8:	01f7d693          	srli	a3,a5,0x1f
    17ec:	00f686b3          	add	a3,a3,a5
    17f0:	4016d693          	srai	a3,a3,0x1
    17f4:	40d70733          	sub	a4,a4,a3
    17f8:	00b70733          	add	a4,a4,a1
    17fc:	0e074263          	bltz	a4,18e0 <draw_paddle1+0x218>
    1800:	0ee54063          	blt	a0,a4,18e0 <draw_paddle1+0x218>
    1804:	00271793          	slli	a5,a4,0x2
    1808:	844e2683          	lw	a3,-1980(t3)
    180c:	00e787b3          	add	a5,a5,a4
    1810:	00679793          	slli	a5,a5,0x6
    1814:	00c78793          	addi	a5,a5,12
    1818:	00f687b3          	add	a5,a3,a5
    181c:	00678023          	sb	t1,0(a5)
    1820:	82c8a783          	lw	a5,-2004(a7)
    1824:	83c82703          	lw	a4,-1988(a6)
    1828:	01f7d693          	srli	a3,a5,0x1f
    182c:	00f686b3          	add	a3,a3,a5
    1830:	4016d693          	srai	a3,a3,0x1
    1834:	40d70733          	sub	a4,a4,a3
    1838:	00b70733          	add	a4,a4,a1
    183c:	0a074263          	bltz	a4,18e0 <draw_paddle1+0x218>
    1840:	0ae54063          	blt	a0,a4,18e0 <draw_paddle1+0x218>
    1844:	00271793          	slli	a5,a4,0x2
    1848:	844e2683          	lw	a3,-1980(t3)
    184c:	00e787b3          	add	a5,a5,a4
    1850:	00679793          	slli	a5,a5,0x6
    1854:	00d78793          	addi	a5,a5,13
    1858:	00f687b3          	add	a5,a3,a5
    185c:	00678023          	sb	t1,0(a5)
    1860:	82c8a783          	lw	a5,-2004(a7)
    1864:	83c82703          	lw	a4,-1988(a6)
    1868:	01f7d693          	srli	a3,a5,0x1f
    186c:	00f686b3          	add	a3,a3,a5
    1870:	4016d693          	srai	a3,a3,0x1
    1874:	40d70733          	sub	a4,a4,a3
    1878:	00b70733          	add	a4,a4,a1
    187c:	06074263          	bltz	a4,18e0 <draw_paddle1+0x218>
    1880:	06e54063          	blt	a0,a4,18e0 <draw_paddle1+0x218>
    1884:	00271793          	slli	a5,a4,0x2
    1888:	844e2683          	lw	a3,-1980(t3)
    188c:	00e787b3          	add	a5,a5,a4
    1890:	00679793          	slli	a5,a5,0x6
    1894:	00e78793          	addi	a5,a5,14
    1898:	00f687b3          	add	a5,a3,a5
    189c:	00678023          	sb	t1,0(a5)
    18a0:	82c8a783          	lw	a5,-2004(a7)
    18a4:	83c82703          	lw	a4,-1988(a6)
    18a8:	01f7d693          	srli	a3,a5,0x1f
    18ac:	00f686b3          	add	a3,a3,a5
    18b0:	4016d693          	srai	a3,a3,0x1
    18b4:	40d70733          	sub	a4,a4,a3
    18b8:	00b70733          	add	a4,a4,a1
    18bc:	02e56263          	bltu	a0,a4,18e0 <draw_paddle1+0x218>
    18c0:	00271793          	slli	a5,a4,0x2
    18c4:	844e2683          	lw	a3,-1980(t3)
    18c8:	00e787b3          	add	a5,a5,a4
    18cc:	00679793          	slli	a5,a5,0x6
    18d0:	00f78793          	addi	a5,a5,15
    18d4:	00f687b3          	add	a5,a3,a5
    18d8:	00678023          	sb	t1,0(a5)
    18dc:	82c8a783          	lw	a5,-2004(a7)
    18e0:	00158593          	addi	a1,a1,1
    18e4:	e0f5c2e3          	blt	a1,a5,16e8 <draw_paddle1+0x20>
    18e8:	00008067          	ret

000018ec <draw_paddle2>:
    18ec:	000038b7          	lui	a7,0x3
    18f0:	82c8a783          	lw	a5,-2004(a7) # 282c <paddle_height>
    18f4:	00000593          	li	a1,0
    18f8:	00003837          	lui	a6,0x3
    18fc:	20f05863          	blez	a5,1b0c <draw_paddle2+0x220>
    1900:	0ef00513          	li	a0,239
    1904:	00003e37          	lui	t3,0x3
    1908:	fff00313          	li	t1,-1
    190c:	83882683          	lw	a3,-1992(a6) # 2838 <player2_y>
    1910:	01f7d613          	srli	a2,a5,0x1f
    1914:	00f60733          	add	a4,a2,a5
    1918:	40175713          	srai	a4,a4,0x1
    191c:	40e68733          	sub	a4,a3,a4
    1920:	00b70733          	add	a4,a4,a1
    1924:	02e56663          	bltu	a0,a4,1950 <draw_paddle2+0x64>
    1928:	00271793          	slli	a5,a4,0x2
    192c:	844e2683          	lw	a3,-1980(t3) # 2844 <VGA>
    1930:	00e787b3          	add	a5,a5,a4
    1934:	00679793          	slli	a5,a5,0x6
    1938:	13878793          	addi	a5,a5,312
    193c:	00f687b3          	add	a5,a3,a5
    1940:	00678023          	sb	t1,0(a5)
    1944:	82c8a783          	lw	a5,-2004(a7)
    1948:	83882683          	lw	a3,-1992(a6)
    194c:	01f7d613          	srli	a2,a5,0x1f
    1950:	00f60633          	add	a2,a2,a5
    1954:	40165613          	srai	a2,a2,0x1
    1958:	40c686b3          	sub	a3,a3,a2
    195c:	00b686b3          	add	a3,a3,a1
    1960:	1a06c263          	bltz	a3,1b04 <draw_paddle2+0x218>
    1964:	1ad54063          	blt	a0,a3,1b04 <draw_paddle2+0x218>
    1968:	00269793          	slli	a5,a3,0x2
    196c:	844e2703          	lw	a4,-1980(t3)
    1970:	00d787b3          	add	a5,a5,a3
    1974:	00679793          	slli	a5,a5,0x6
    1978:	13978793          	addi	a5,a5,313
    197c:	00f707b3          	add	a5,a4,a5
    1980:	00678023          	sb	t1,0(a5)
    1984:	82c8a783          	lw	a5,-2004(a7)
    1988:	83882703          	lw	a4,-1992(a6)
    198c:	01f7d693          	srli	a3,a5,0x1f
    1990:	00f686b3          	add	a3,a3,a5
    1994:	4016d693          	srai	a3,a3,0x1
    1998:	40d70733          	sub	a4,a4,a3
    199c:	00b70733          	add	a4,a4,a1
    19a0:	16074263          	bltz	a4,1b04 <draw_paddle2+0x218>
    19a4:	16e54063          	blt	a0,a4,1b04 <draw_paddle2+0x218>
    19a8:	00271793          	slli	a5,a4,0x2
    19ac:	844e2683          	lw	a3,-1980(t3)
    19b0:	00e787b3          	add	a5,a5,a4
    19b4:	00679793          	slli	a5,a5,0x6
    19b8:	13a78793          	addi	a5,a5,314
    19bc:	00f687b3          	add	a5,a3,a5
    19c0:	00678023          	sb	t1,0(a5)
    19c4:	82c8a783          	lw	a5,-2004(a7)
    19c8:	83882703          	lw	a4,-1992(a6)
    19cc:	01f7d693          	srli	a3,a5,0x1f
    19d0:	00f686b3          	add	a3,a3,a5
    19d4:	4016d693          	srai	a3,a3,0x1
    19d8:	40d70733          	sub	a4,a4,a3
    19dc:	00b70733          	add	a4,a4,a1
    19e0:	12074263          	bltz	a4,1b04 <draw_paddle2+0x218>
    19e4:	12e54063          	blt	a0,a4,1b04 <draw_paddle2+0x218>
    19e8:	00271793          	slli	a5,a4,0x2
    19ec:	844e2683          	lw	a3,-1980(t3)
    19f0:	00e787b3          	add	a5,a5,a4
    19f4:	00679793          	slli	a5,a5,0x6
    19f8:	13b78793          	addi	a5,a5,315
    19fc:	00f687b3          	add	a5,a3,a5
    1a00:	00678023          	sb	t1,0(a5)
    1a04:	82c8a783          	lw	a5,-2004(a7)
    1a08:	83882703          	lw	a4,-1992(a6)
    1a0c:	01f7d693          	srli	a3,a5,0x1f
    1a10:	00f686b3          	add	a3,a3,a5
    1a14:	4016d693          	srai	a3,a3,0x1
    1a18:	40d70733          	sub	a4,a4,a3
    1a1c:	00b70733          	add	a4,a4,a1
    1a20:	0e074263          	bltz	a4,1b04 <draw_paddle2+0x218>
    1a24:	0ee54063          	blt	a0,a4,1b04 <draw_paddle2+0x218>
    1a28:	00271793          	slli	a5,a4,0x2
    1a2c:	844e2683          	lw	a3,-1980(t3)
    1a30:	00e787b3          	add	a5,a5,a4
    1a34:	00679793          	slli	a5,a5,0x6
    1a38:	13c78793          	addi	a5,a5,316
    1a3c:	00f687b3          	add	a5,a3,a5
    1a40:	00678023          	sb	t1,0(a5)
    1a44:	82c8a783          	lw	a5,-2004(a7)
    1a48:	83882703          	lw	a4,-1992(a6)
    1a4c:	01f7d693          	srli	a3,a5,0x1f
    1a50:	00f686b3          	add	a3,a3,a5
    1a54:	4016d693          	srai	a3,a3,0x1
    1a58:	40d70733          	sub	a4,a4,a3
    1a5c:	00b70733          	add	a4,a4,a1
    1a60:	0a074263          	bltz	a4,1b04 <draw_paddle2+0x218>
    1a64:	0ae54063          	blt	a0,a4,1b04 <draw_paddle2+0x218>
    1a68:	00271793          	slli	a5,a4,0x2
    1a6c:	844e2683          	lw	a3,-1980(t3)
    1a70:	00e787b3          	add	a5,a5,a4
    1a74:	00679793          	slli	a5,a5,0x6
    1a78:	13d78793          	addi	a5,a5,317
    1a7c:	00f687b3          	add	a5,a3,a5
    1a80:	00678023          	sb	t1,0(a5)
    1a84:	82c8a783          	lw	a5,-2004(a7)
    1a88:	83882703          	lw	a4,-1992(a6)
    1a8c:	01f7d693          	srli	a3,a5,0x1f
    1a90:	00f686b3          	add	a3,a3,a5
    1a94:	4016d693          	srai	a3,a3,0x1
    1a98:	40d70733          	sub	a4,a4,a3
    1a9c:	00b70733          	add	a4,a4,a1
    1aa0:	06074263          	bltz	a4,1b04 <draw_paddle2+0x218>
    1aa4:	06e54063          	blt	a0,a4,1b04 <draw_paddle2+0x218>
    1aa8:	00271793          	slli	a5,a4,0x2
    1aac:	844e2683          	lw	a3,-1980(t3)
    1ab0:	00e787b3          	add	a5,a5,a4
    1ab4:	00679793          	slli	a5,a5,0x6
    1ab8:	13e78793          	addi	a5,a5,318
    1abc:	00f687b3          	add	a5,a3,a5
    1ac0:	00678023          	sb	t1,0(a5)
    1ac4:	82c8a783          	lw	a5,-2004(a7)
    1ac8:	83882703          	lw	a4,-1992(a6)
    1acc:	01f7d693          	srli	a3,a5,0x1f
    1ad0:	00f686b3          	add	a3,a3,a5
    1ad4:	4016d693          	srai	a3,a3,0x1
    1ad8:	40d70733          	sub	a4,a4,a3
    1adc:	00b70733          	add	a4,a4,a1
    1ae0:	02e56263          	bltu	a0,a4,1b04 <draw_paddle2+0x218>
    1ae4:	00271793          	slli	a5,a4,0x2
    1ae8:	844e2683          	lw	a3,-1980(t3)
    1aec:	00e787b3          	add	a5,a5,a4
    1af0:	00679793          	slli	a5,a5,0x6
    1af4:	13f78793          	addi	a5,a5,319
    1af8:	00f687b3          	add	a5,a3,a5
    1afc:	00678023          	sb	t1,0(a5)
    1b00:	82c8a783          	lw	a5,-2004(a7)
    1b04:	00158593          	addi	a1,a1,1
    1b08:	e0f5c2e3          	blt	a1,a5,190c <draw_paddle2+0x20>
    1b0c:	00008067          	ret

00001b10 <draw_diagonal_line_ltr>:
    1b10:	000088b7          	lui	a7,0x8
    1b14:	d0088893          	addi	a7,a7,-768 # 7d00 <__global_pointer+0x4cd8>
    1b18:	06400713          	li	a4,100
    1b1c:	14000613          	li	a2,320
    1b20:	00003837          	lui	a6,0x3
    1b24:	08d00313          	li	t1,141
    1b28:	02388593          	addi	a1,a7,35
    1b2c:	03200793          	li	a5,50
    1b30:	00170513          	addi	a0,a4,1
    1b34:	00e585b3          	add	a1,a1,a4
    1b38:	00f70e63          	beq	a4,a5,1b54 <draw_diagonal_line_ltr+0x44>
    1b3c:	00178793          	addi	a5,a5,1
    1b40:	fec79ce3          	bne	a5,a2,1b38 <draw_diagonal_line_ltr+0x28>
    1b44:	00050713          	mv	a4,a0
    1b48:	14088893          	addi	a7,a7,320
    1b4c:	fc651ee3          	bne	a0,t1,1b28 <draw_diagonal_line_ltr+0x18>
    1b50:	00008067          	ret
    1b54:	84482683          	lw	a3,-1980(a6) # 2844 <VGA>
    1b58:	00050793          	mv	a5,a0
    1b5c:	00b686b3          	add	a3,a3,a1
    1b60:	00068023          	sb	zero,0(a3)
    1b64:	fd5ff06f          	j	1b38 <draw_diagonal_line_ltr+0x28>

00001b68 <draw_diagonal_line_rtl>:
    1b68:	0000b837          	lui	a6,0xb
    1b6c:	f0080813          	addi	a6,a6,-256 # af00 <__global_pointer+0x7ed8>
    1b70:	08c00713          	li	a4,140
    1b74:	0f000613          	li	a2,240
    1b78:	00003537          	lui	a0,0x3
    1b7c:	06300893          	li	a7,99
    1b80:	11380593          	addi	a1,a6,275
    1b84:	01400793          	li	a5,20
    1b88:	40e585b3          	sub	a1,a1,a4
    1b8c:	00f70e63          	beq	a4,a5,1ba8 <draw_diagonal_line_rtl+0x40>
    1b90:	00178793          	addi	a5,a5,1
    1b94:	fec79ce3          	bne	a5,a2,1b8c <draw_diagonal_line_rtl+0x24>
    1b98:	fff70713          	addi	a4,a4,-1
    1b9c:	ec080813          	addi	a6,a6,-320
    1ba0:	ff1710e3          	bne	a4,a7,1b80 <draw_diagonal_line_rtl+0x18>
    1ba4:	00008067          	ret
    1ba8:	84452683          	lw	a3,-1980(a0) # 2844 <VGA>
    1bac:	00170793          	addi	a5,a4,1
    1bb0:	00b686b3          	add	a3,a3,a1
    1bb4:	00068023          	sb	zero,0(a3)
    1bb8:	fd5ff06f          	j	1b8c <draw_diagonal_line_rtl+0x24>

00001bbc <main>:
    1bbc:	fc010113          	addi	sp,sp,-64
    1bc0:	02112e23          	sw	ra,60(sp)
    1bc4:	02812c23          	sw	s0,56(sp)
    1bc8:	02912a23          	sw	s1,52(sp)
    1bcc:	03212823          	sw	s2,48(sp)
    1bd0:	03312623          	sw	s3,44(sp)
    1bd4:	03412423          	sw	s4,40(sp)
    1bd8:	03512223          	sw	s5,36(sp)
    1bdc:	03612023          	sw	s6,32(sp)
    1be0:	01712e23          	sw	s7,28(sp)
    1be4:	01812c23          	sw	s8,24(sp)
    1be8:	01912a23          	sw	s9,20(sp)
    1bec:	01a12823          	sw	s10,16(sp)
    1bf0:	01b12623          	sw	s11,12(sp)
    1bf4:	d80fe0ef          	jal	174 <initialize_game>
    1bf8:	00003437          	lui	s0,0x3
    1bfc:	d3cff0ef          	jal	1138 <get_btn>
    1c00:	85842783          	lw	a5,-1960(s0) # 2858 <game_state>
    1c04:	00013ab7          	lui	s5,0x13
    1c08:	00003a37          	lui	s4,0x3
    1c0c:	00003d37          	lui	s10,0x3
    1c10:	00003c37          	lui	s8,0x3
    1c14:	00003db7          	lui	s11,0x3
    1c18:	000039b7          	lui	s3,0x3
    1c1c:	00003937          	lui	s2,0x3
    1c20:	000034b7          	lui	s1,0x3
    1c24:	c00a8a93          	addi	s5,s5,-1024 # 12c00 <__global_pointer+0xfbd8>
    1c28:	13f00b93          	li	s7,319
    1c2c:	0ef00b13          	li	s6,239
    1c30:	fff00c93          	li	s9,-1
    1c34:	02079a63          	bnez	a5,1c68 <main+0xac>
    1c38:	8404a703          	lw	a4,-1984(s1) # 2840 <VGA_CTRL>
    1c3c:	844a2683          	lw	a3,-1980(s4) # 2844 <VGA>
    1c40:	000f47b7          	lui	a5,0xf4
    1c44:	24078793          	addi	a5,a5,576 # f4240 <__global_pointer+0xf1218>
    1c48:	00d72223          	sw	a3,4(a4)
    1c4c:	00072023          	sw	zero,0(a4)
    1c50:	00000013          	nop
    1c54:	fff78793          	addi	a5,a5,-1
    1c58:	fe079ce3          	bnez	a5,1c50 <main+0x94>
    1c5c:	cdcff0ef          	jal	1138 <get_btn>
    1c60:	85842783          	lw	a5,-1960(s0)
    1c64:	fc078ae3          	beqz	a5,1c38 <main+0x7c>
    1c68:	d6cff0ef          	jal	11d4 <set_special_game_modes>
    1c6c:	ce4ff0ef          	jal	1150 <set_paddles_velocity>
    1c70:	940ff0ef          	jal	db0 <move_ball>
    1c74:	b34ff0ef          	jal	fa8 <move_paddles>
    1c78:	00000793          	li	a5,0
    1c7c:	844a2703          	lw	a4,-1980(s4)
    1c80:	00f70733          	add	a4,a4,a5
    1c84:	00070023          	sb	zero,0(a4)
    1c88:	00178793          	addi	a5,a5,1
    1c8c:	ff5798e3          	bne	a5,s5,1c7c <main+0xc0>
    1c90:	000037b7          	lui	a5,0x3
    1c94:	8287a883          	lw	a7,-2008(a5) # 2828 <ball_size>
    1c98:	00000313          	li	t1,0
    1c9c:	05105a63          	blez	a7,1cf0 <main+0x134>
    1ca0:	00000713          	li	a4,0
    1ca4:	834c2783          	lw	a5,-1996(s8) # 2834 <ball_x>
    1ca8:	00f707b3          	add	a5,a4,a5
    1cac:	00170713          	addi	a4,a4,1
    1cb0:	02fbea63          	bltu	s7,a5,1ce4 <main+0x128>
    1cb4:	830da503          	lw	a0,-2000(s11) # 2830 <ball_y>
    1cb8:	00a30533          	add	a0,t1,a0
    1cbc:	00251693          	slli	a3,a0,0x2
    1cc0:	00a686b3          	add	a3,a3,a0
    1cc4:	00669693          	slli	a3,a3,0x6
    1cc8:	00f686b3          	add	a3,a3,a5
    1ccc:	00ab6c63          	bltu	s6,a0,1ce4 <main+0x128>
    1cd0:	844a2783          	lw	a5,-1980(s4)
    1cd4:	00d787b3          	add	a5,a5,a3
    1cd8:	01978023          	sb	s9,0(a5)
    1cdc:	000037b7          	lui	a5,0x3
    1ce0:	8287a883          	lw	a7,-2008(a5) # 2828 <ball_size>
    1ce4:	fd1740e3          	blt	a4,a7,1ca4 <main+0xe8>
    1ce8:	00130313          	addi	t1,t1,1
    1cec:	fb134ae3          	blt	t1,a7,1ca0 <main+0xe4>
    1cf0:	82cd2783          	lw	a5,-2004(s10) # 282c <paddle_height>
    1cf4:	00000893          	li	a7,0
    1cf8:	40f05663          	blez	a5,2104 <main+0x548>
    1cfc:	83c9a503          	lw	a0,-1988(s3) # 283c <player1_y>
    1d00:	01f7d713          	srli	a4,a5,0x1f
    1d04:	00f706b3          	add	a3,a4,a5
    1d08:	4016d693          	srai	a3,a3,0x1
    1d0c:	40d506b3          	sub	a3,a0,a3
    1d10:	011686b3          	add	a3,a3,a7
    1d14:	02db6663          	bltu	s6,a3,1d40 <main+0x184>
    1d18:	00269793          	slli	a5,a3,0x2
    1d1c:	844a2703          	lw	a4,-1980(s4)
    1d20:	00d787b3          	add	a5,a5,a3
    1d24:	00679793          	slli	a5,a5,0x6
    1d28:	00878793          	addi	a5,a5,8
    1d2c:	00f707b3          	add	a5,a4,a5
    1d30:	01978023          	sb	s9,0(a5)
    1d34:	82cd2783          	lw	a5,-2004(s10)
    1d38:	83c9a503          	lw	a0,-1988(s3)
    1d3c:	01f7d713          	srli	a4,a5,0x1f
    1d40:	00f70733          	add	a4,a4,a5
    1d44:	40175713          	srai	a4,a4,0x1
    1d48:	40e50733          	sub	a4,a0,a4
    1d4c:	01170733          	add	a4,a4,a7
    1d50:	1a074263          	bltz	a4,1ef4 <main+0x338>
    1d54:	1aeb4063          	blt	s6,a4,1ef4 <main+0x338>
    1d58:	00271793          	slli	a5,a4,0x2
    1d5c:	844a2683          	lw	a3,-1980(s4)
    1d60:	00e787b3          	add	a5,a5,a4
    1d64:	00679793          	slli	a5,a5,0x6
    1d68:	00978793          	addi	a5,a5,9
    1d6c:	00f687b3          	add	a5,a3,a5
    1d70:	01978023          	sb	s9,0(a5)
    1d74:	82cd2783          	lw	a5,-2004(s10)
    1d78:	83c9a703          	lw	a4,-1988(s3)
    1d7c:	01f7d693          	srli	a3,a5,0x1f
    1d80:	00f686b3          	add	a3,a3,a5
    1d84:	4016d693          	srai	a3,a3,0x1
    1d88:	40d70733          	sub	a4,a4,a3
    1d8c:	01170733          	add	a4,a4,a7
    1d90:	16074263          	bltz	a4,1ef4 <main+0x338>
    1d94:	16eb4063          	blt	s6,a4,1ef4 <main+0x338>
    1d98:	00271793          	slli	a5,a4,0x2
    1d9c:	844a2683          	lw	a3,-1980(s4)
    1da0:	00e787b3          	add	a5,a5,a4
    1da4:	00679793          	slli	a5,a5,0x6
    1da8:	00a78793          	addi	a5,a5,10
    1dac:	00f687b3          	add	a5,a3,a5
    1db0:	01978023          	sb	s9,0(a5)
    1db4:	82cd2783          	lw	a5,-2004(s10)
    1db8:	83c9a703          	lw	a4,-1988(s3)
    1dbc:	01f7d693          	srli	a3,a5,0x1f
    1dc0:	00f686b3          	add	a3,a3,a5
    1dc4:	4016d693          	srai	a3,a3,0x1
    1dc8:	40d70733          	sub	a4,a4,a3
    1dcc:	01170733          	add	a4,a4,a7
    1dd0:	12074263          	bltz	a4,1ef4 <main+0x338>
    1dd4:	12eb4063          	blt	s6,a4,1ef4 <main+0x338>
    1dd8:	00271793          	slli	a5,a4,0x2
    1ddc:	844a2683          	lw	a3,-1980(s4)
    1de0:	00e787b3          	add	a5,a5,a4
    1de4:	00679793          	slli	a5,a5,0x6
    1de8:	00b78793          	addi	a5,a5,11
    1dec:	00f687b3          	add	a5,a3,a5
    1df0:	01978023          	sb	s9,0(a5)
    1df4:	82cd2783          	lw	a5,-2004(s10)
    1df8:	83c9a703          	lw	a4,-1988(s3)
    1dfc:	01f7d693          	srli	a3,a5,0x1f
    1e00:	00f686b3          	add	a3,a3,a5
    1e04:	4016d693          	srai	a3,a3,0x1
    1e08:	40d70733          	sub	a4,a4,a3
    1e0c:	01170733          	add	a4,a4,a7
    1e10:	0e074263          	bltz	a4,1ef4 <main+0x338>
    1e14:	0eeb4063          	blt	s6,a4,1ef4 <main+0x338>
    1e18:	00271793          	slli	a5,a4,0x2
    1e1c:	844a2683          	lw	a3,-1980(s4)
    1e20:	00e787b3          	add	a5,a5,a4
    1e24:	00679793          	slli	a5,a5,0x6
    1e28:	00c78793          	addi	a5,a5,12
    1e2c:	00f687b3          	add	a5,a3,a5
    1e30:	01978023          	sb	s9,0(a5)
    1e34:	82cd2783          	lw	a5,-2004(s10)
    1e38:	83c9a703          	lw	a4,-1988(s3)
    1e3c:	01f7d693          	srli	a3,a5,0x1f
    1e40:	00f686b3          	add	a3,a3,a5
    1e44:	4016d693          	srai	a3,a3,0x1
    1e48:	40d70733          	sub	a4,a4,a3
    1e4c:	01170733          	add	a4,a4,a7
    1e50:	0a074263          	bltz	a4,1ef4 <main+0x338>
    1e54:	0aeb4063          	blt	s6,a4,1ef4 <main+0x338>
    1e58:	00271793          	slli	a5,a4,0x2
    1e5c:	844a2683          	lw	a3,-1980(s4)
    1e60:	00e787b3          	add	a5,a5,a4
    1e64:	00679793          	slli	a5,a5,0x6
    1e68:	00d78793          	addi	a5,a5,13
    1e6c:	00f687b3          	add	a5,a3,a5
    1e70:	01978023          	sb	s9,0(a5)
    1e74:	82cd2783          	lw	a5,-2004(s10)
    1e78:	83c9a703          	lw	a4,-1988(s3)
    1e7c:	01f7d693          	srli	a3,a5,0x1f
    1e80:	00f686b3          	add	a3,a3,a5
    1e84:	4016d693          	srai	a3,a3,0x1
    1e88:	40d70733          	sub	a4,a4,a3
    1e8c:	01170733          	add	a4,a4,a7
    1e90:	06074263          	bltz	a4,1ef4 <main+0x338>
    1e94:	06eb4063          	blt	s6,a4,1ef4 <main+0x338>
    1e98:	00271793          	slli	a5,a4,0x2
    1e9c:	844a2683          	lw	a3,-1980(s4)
    1ea0:	00e787b3          	add	a5,a5,a4
    1ea4:	00679793          	slli	a5,a5,0x6
    1ea8:	00e78793          	addi	a5,a5,14
    1eac:	00f687b3          	add	a5,a3,a5
    1eb0:	01978023          	sb	s9,0(a5)
    1eb4:	82cd2783          	lw	a5,-2004(s10)
    1eb8:	83c9a703          	lw	a4,-1988(s3)
    1ebc:	01f7d693          	srli	a3,a5,0x1f
    1ec0:	00f686b3          	add	a3,a3,a5
    1ec4:	4016d693          	srai	a3,a3,0x1
    1ec8:	40d70733          	sub	a4,a4,a3
    1ecc:	01170733          	add	a4,a4,a7
    1ed0:	02eb6263          	bltu	s6,a4,1ef4 <main+0x338>
    1ed4:	00271793          	slli	a5,a4,0x2
    1ed8:	844a2683          	lw	a3,-1980(s4)
    1edc:	00e787b3          	add	a5,a5,a4
    1ee0:	00679793          	slli	a5,a5,0x6
    1ee4:	00f78793          	addi	a5,a5,15
    1ee8:	00f687b3          	add	a5,a3,a5
    1eec:	01978023          	sb	s9,0(a5)
    1ef0:	82cd2783          	lw	a5,-2004(s10)
    1ef4:	00188893          	addi	a7,a7,1
    1ef8:	e0f8c2e3          	blt	a7,a5,1cfc <main+0x140>
    1efc:	00000893          	li	a7,0
    1f00:	20f05263          	blez	a5,2104 <main+0x548>
    1f04:	83892503          	lw	a0,-1992(s2) # 2838 <player2_y>
    1f08:	01f7d713          	srli	a4,a5,0x1f
    1f0c:	00f706b3          	add	a3,a4,a5
    1f10:	4016d693          	srai	a3,a3,0x1
    1f14:	40d506b3          	sub	a3,a0,a3
    1f18:	011686b3          	add	a3,a3,a7
    1f1c:	02db6663          	bltu	s6,a3,1f48 <main+0x38c>
    1f20:	00269793          	slli	a5,a3,0x2
    1f24:	844a2703          	lw	a4,-1980(s4)
    1f28:	00d787b3          	add	a5,a5,a3
    1f2c:	00679793          	slli	a5,a5,0x6
    1f30:	13878793          	addi	a5,a5,312
    1f34:	00f707b3          	add	a5,a4,a5
    1f38:	01978023          	sb	s9,0(a5)
    1f3c:	82cd2783          	lw	a5,-2004(s10)
    1f40:	83892503          	lw	a0,-1992(s2)
    1f44:	01f7d713          	srli	a4,a5,0x1f
    1f48:	00f70733          	add	a4,a4,a5
    1f4c:	40175713          	srai	a4,a4,0x1
    1f50:	40e50733          	sub	a4,a0,a4
    1f54:	01170733          	add	a4,a4,a7
    1f58:	1a074263          	bltz	a4,20fc <main+0x540>
    1f5c:	1aeb4063          	blt	s6,a4,20fc <main+0x540>
    1f60:	00271793          	slli	a5,a4,0x2
    1f64:	844a2683          	lw	a3,-1980(s4)
    1f68:	00e787b3          	add	a5,a5,a4
    1f6c:	00679793          	slli	a5,a5,0x6
    1f70:	13978793          	addi	a5,a5,313
    1f74:	00f687b3          	add	a5,a3,a5
    1f78:	01978023          	sb	s9,0(a5)
    1f7c:	82cd2783          	lw	a5,-2004(s10)
    1f80:	83892703          	lw	a4,-1992(s2)
    1f84:	01f7d693          	srli	a3,a5,0x1f
    1f88:	00f686b3          	add	a3,a3,a5
    1f8c:	4016d693          	srai	a3,a3,0x1
    1f90:	40d70733          	sub	a4,a4,a3
    1f94:	01170733          	add	a4,a4,a7
    1f98:	16074263          	bltz	a4,20fc <main+0x540>
    1f9c:	16eb4063          	blt	s6,a4,20fc <main+0x540>
    1fa0:	00271793          	slli	a5,a4,0x2
    1fa4:	844a2683          	lw	a3,-1980(s4)
    1fa8:	00e787b3          	add	a5,a5,a4
    1fac:	00679793          	slli	a5,a5,0x6
    1fb0:	13a78793          	addi	a5,a5,314
    1fb4:	00f687b3          	add	a5,a3,a5
    1fb8:	01978023          	sb	s9,0(a5)
    1fbc:	82cd2783          	lw	a5,-2004(s10)
    1fc0:	83892703          	lw	a4,-1992(s2)
    1fc4:	01f7d693          	srli	a3,a5,0x1f
    1fc8:	00f686b3          	add	a3,a3,a5
    1fcc:	4016d693          	srai	a3,a3,0x1
    1fd0:	40d70733          	sub	a4,a4,a3
    1fd4:	01170733          	add	a4,a4,a7
    1fd8:	12074263          	bltz	a4,20fc <main+0x540>
    1fdc:	12eb4063          	blt	s6,a4,20fc <main+0x540>
    1fe0:	00271793          	slli	a5,a4,0x2
    1fe4:	844a2683          	lw	a3,-1980(s4)
    1fe8:	00e787b3          	add	a5,a5,a4
    1fec:	00679793          	slli	a5,a5,0x6
    1ff0:	13b78793          	addi	a5,a5,315
    1ff4:	00f687b3          	add	a5,a3,a5
    1ff8:	01978023          	sb	s9,0(a5)
    1ffc:	82cd2783          	lw	a5,-2004(s10)
    2000:	83892703          	lw	a4,-1992(s2)
    2004:	01f7d693          	srli	a3,a5,0x1f
    2008:	00f686b3          	add	a3,a3,a5
    200c:	4016d693          	srai	a3,a3,0x1
    2010:	40d70733          	sub	a4,a4,a3
    2014:	01170733          	add	a4,a4,a7
    2018:	0e074263          	bltz	a4,20fc <main+0x540>
    201c:	0eeb4063          	blt	s6,a4,20fc <main+0x540>
    2020:	00271793          	slli	a5,a4,0x2
    2024:	844a2683          	lw	a3,-1980(s4)
    2028:	00e787b3          	add	a5,a5,a4
    202c:	00679793          	slli	a5,a5,0x6
    2030:	13c78793          	addi	a5,a5,316
    2034:	00f687b3          	add	a5,a3,a5
    2038:	01978023          	sb	s9,0(a5)
    203c:	82cd2783          	lw	a5,-2004(s10)
    2040:	83892703          	lw	a4,-1992(s2)
    2044:	01f7d693          	srli	a3,a5,0x1f
    2048:	00f686b3          	add	a3,a3,a5
    204c:	4016d693          	srai	a3,a3,0x1
    2050:	40d70733          	sub	a4,a4,a3
    2054:	01170733          	add	a4,a4,a7
    2058:	0a074263          	bltz	a4,20fc <main+0x540>
    205c:	0aeb4063          	blt	s6,a4,20fc <main+0x540>
    2060:	00271793          	slli	a5,a4,0x2
    2064:	844a2683          	lw	a3,-1980(s4)
    2068:	00e787b3          	add	a5,a5,a4
    206c:	00679793          	slli	a5,a5,0x6
    2070:	13d78793          	addi	a5,a5,317
    2074:	00f687b3          	add	a5,a3,a5
    2078:	01978023          	sb	s9,0(a5)
    207c:	82cd2783          	lw	a5,-2004(s10)
    2080:	83892703          	lw	a4,-1992(s2)
    2084:	01f7d693          	srli	a3,a5,0x1f
    2088:	00f686b3          	add	a3,a3,a5
    208c:	4016d693          	srai	a3,a3,0x1
    2090:	40d70733          	sub	a4,a4,a3
    2094:	01170733          	add	a4,a4,a7
    2098:	06074263          	bltz	a4,20fc <main+0x540>
    209c:	06eb4063          	blt	s6,a4,20fc <main+0x540>
    20a0:	00271793          	slli	a5,a4,0x2
    20a4:	844a2683          	lw	a3,-1980(s4)
    20a8:	00e787b3          	add	a5,a5,a4
    20ac:	00679793          	slli	a5,a5,0x6
    20b0:	13e78793          	addi	a5,a5,318
    20b4:	00f687b3          	add	a5,a3,a5
    20b8:	01978023          	sb	s9,0(a5)
    20bc:	82cd2783          	lw	a5,-2004(s10)
    20c0:	83892703          	lw	a4,-1992(s2)
    20c4:	01f7d693          	srli	a3,a5,0x1f
    20c8:	00f686b3          	add	a3,a3,a5
    20cc:	4016d693          	srai	a3,a3,0x1
    20d0:	40d70733          	sub	a4,a4,a3
    20d4:	01170733          	add	a4,a4,a7
    20d8:	02eb6263          	bltu	s6,a4,20fc <main+0x540>
    20dc:	00271793          	slli	a5,a4,0x2
    20e0:	844a2683          	lw	a3,-1980(s4)
    20e4:	00e787b3          	add	a5,a5,a4
    20e8:	00679793          	slli	a5,a5,0x6
    20ec:	13f78793          	addi	a5,a5,319
    20f0:	00f687b3          	add	a5,a3,a5
    20f4:	01978023          	sb	s9,0(a5)
    20f8:	82cd2783          	lw	a5,-2004(s10)
    20fc:	00188893          	addi	a7,a7,1
    2100:	e0f8c2e3          	blt	a7,a5,1f04 <main+0x348>
    2104:	000037b7          	lui	a5,0x3
    2108:	8607a703          	lw	a4,-1952(a5) # 2860 <player1_score>
    210c:	00400793          	li	a5,4
    2110:	0ae7cc63          	blt	a5,a4,21c8 <main+0x60c>
    2114:	000037b7          	lui	a5,0x3
    2118:	85c7a703          	lw	a4,-1956(a5) # 285c <player2_score>
    211c:	00400793          	li	a5,4
    2120:	b0e7dce3          	bge	a5,a4,1c38 <main+0x7c>
    2124:	00008e37          	lui	t3,0x8
    2128:	84042c23          	sw	zero,-1960(s0)
    212c:	d00e0e13          	addi	t3,t3,-768 # 7d00 <__global_pointer+0x4cd8>
    2130:	06400713          	li	a4,100
    2134:	14000513          	li	a0,320
    2138:	08d00e93          	li	t4,141
    213c:	023e0893          	addi	a7,t3,35
    2140:	03200793          	li	a5,50
    2144:	00170313          	addi	t1,a4,1
    2148:	00e888b3          	add	a7,a7,a4
    214c:	06f70463          	beq	a4,a5,21b4 <main+0x5f8>
    2150:	00178793          	addi	a5,a5,1
    2154:	fea79ce3          	bne	a5,a0,214c <main+0x590>
    2158:	00030713          	mv	a4,t1
    215c:	140e0e13          	addi	t3,t3,320
    2160:	fdd31ee3          	bne	t1,t4,213c <main+0x580>
    2164:	0000be37          	lui	t3,0xb
    2168:	f00e0e13          	addi	t3,t3,-256 # af00 <__global_pointer+0x7ed8>
    216c:	08c00713          	li	a4,140
    2170:	0f000893          	li	a7,240
    2174:	06300e93          	li	t4,99
    2178:	01400793          	li	a5,20
    217c:	113e0313          	addi	t1,t3,275
    2180:	00e78e63          	beq	a5,a4,219c <main+0x5e0>
    2184:	00178793          	addi	a5,a5,1
    2188:	ff179ce3          	bne	a5,a7,2180 <main+0x5c4>
    218c:	fff70713          	addi	a4,a4,-1
    2190:	ec0e0e13          	addi	t3,t3,-320
    2194:	ffd712e3          	bne	a4,t4,2178 <main+0x5bc>
    2198:	aa1ff06f          	j	1c38 <main+0x7c>
    219c:	844a2683          	lw	a3,-1980(s4)
    21a0:	40f30533          	sub	a0,t1,a5
    21a4:	00178793          	addi	a5,a5,1
    21a8:	00a686b3          	add	a3,a3,a0
    21ac:	00068023          	sb	zero,0(a3)
    21b0:	fd1ff06f          	j	2180 <main+0x5c4>
    21b4:	844a2683          	lw	a3,-1980(s4)
    21b8:	00030793          	mv	a5,t1
    21bc:	011686b3          	add	a3,a3,a7
    21c0:	00068023          	sb	zero,0(a3)
    21c4:	f89ff06f          	j	214c <main+0x590>
    21c8:	00008e37          	lui	t3,0x8
    21cc:	84042c23          	sw	zero,-1960(s0)
    21d0:	d00e0e13          	addi	t3,t3,-768 # 7d00 <__global_pointer+0x4cd8>
    21d4:	06400713          	li	a4,100
    21d8:	14000513          	li	a0,320
    21dc:	08d00e93          	li	t4,141
    21e0:	023e0893          	addi	a7,t3,35
    21e4:	03200793          	li	a5,50
    21e8:	00170313          	addi	t1,a4,1
    21ec:	00e888b3          	add	a7,a7,a4
    21f0:	06f70463          	beq	a4,a5,2258 <main+0x69c>
    21f4:	00178793          	addi	a5,a5,1
    21f8:	fea79ce3          	bne	a5,a0,21f0 <main+0x634>
    21fc:	00030713          	mv	a4,t1
    2200:	140e0e13          	addi	t3,t3,320
    2204:	fdd31ee3          	bne	t1,t4,21e0 <main+0x624>
    2208:	0000b337          	lui	t1,0xb
    220c:	f0030313          	addi	t1,t1,-256 # af00 <__global_pointer+0x7ed8>
    2210:	08c00713          	li	a4,140
    2214:	0f000513          	li	a0,240
    2218:	06300e13          	li	t3,99
    221c:	11330893          	addi	a7,t1,275
    2220:	01400793          	li	a5,20
    2224:	40e888b3          	sub	a7,a7,a4
    2228:	00f70e63          	beq	a4,a5,2244 <main+0x688>
    222c:	00178793          	addi	a5,a5,1
    2230:	fea79ce3          	bne	a5,a0,2228 <main+0x66c>
    2234:	fff70713          	addi	a4,a4,-1
    2238:	ec030313          	addi	t1,t1,-320
    223c:	ffc710e3          	bne	a4,t3,221c <main+0x660>
    2240:	ed5ff06f          	j	2114 <main+0x558>
    2244:	844a2683          	lw	a3,-1980(s4)
    2248:	00170793          	addi	a5,a4,1
    224c:	011686b3          	add	a3,a3,a7
    2250:	00068023          	sb	zero,0(a3)
    2254:	fd5ff06f          	j	2228 <main+0x66c>
    2258:	844a2683          	lw	a3,-1980(s4)
    225c:	00030793          	mv	a5,t1
    2260:	011686b3          	add	a3,a3,a7
    2264:	00068023          	sb	zero,0(a3)
    2268:	f89ff06f          	j	21f0 <main+0x634>

0000226c <__subdf3>:
    226c:	800007b7          	lui	a5,0x80000
    2270:	00f6c6b3          	xor	a3,a3,a5

00002274 <__adddf3>:
    2274:	ffe007b7          	lui	a5,0xffe00
    2278:	00159393          	slli	t2,a1,0x1
    227c:	00169293          	slli	t0,a3,0x1
    2280:	2cf3fc63          	bgeu	t2,a5,2558 <infnan>
    2284:	2cf2f263          	bgeu	t0,a5,2548 <infnan_B_only>
    2288:	0153d393          	srli	t2,t2,0x15
    228c:	0152d293          	srli	t0,t0,0x15
    2290:	28038c63          	beqz	t2,2528 <zero_operand>
    2294:	2a028063          	beqz	t0,2534 <zero_operand_Y>
    2298:	40538333          	sub	t1,t2,t0
    229c:	0253f263          	bgeu	t2,t0,22c0 <__adddf3+0x4c>
    22a0:	40600333          	neg	t1,t1
    22a4:	00028393          	mv	t2,t0
    22a8:	00c54633          	xor	a2,a0,a2
    22ac:	00d5c6b3          	xor	a3,a1,a3
    22b0:	00a64533          	xor	a0,a2,a0
    22b4:	00b6c5b3          	xor	a1,a3,a1
    22b8:	00c54633          	xor	a2,a0,a2
    22bc:	00d5c6b3          	xor	a3,a1,a3
    22c0:	03733293          	sltiu	t0,t1,55
    22c4:	14028663          	beqz	t0,2410 <exit>
    22c8:	fff7c793          	not	a5,a5
    22cc:	01429293          	slli	t0,t0,0x14
    22d0:	0055e5b3          	or	a1,a1,t0
    22d4:	0056e6b3          	or	a3,a3,t0
    22d8:	00b29293          	slli	t0,t0,0xb
    22dc:	0055b733          	sltu	a4,a1,t0
    22e0:	00f5f5b3          	and	a1,a1,a5
    22e4:	00071a63          	bnez	a4,22f8 <__adddf3+0x84>
    22e8:	00153713          	seqz	a4,a0
    22ec:	fff5c593          	not	a1,a1
    22f0:	40a00533          	neg	a0,a0
    22f4:	00e585b3          	add	a1,a1,a4
    22f8:	0056b733          	sltu	a4,a3,t0
    22fc:	00f6f6b3          	and	a3,a3,a5
    2300:	00071a63          	bnez	a4,2314 <sum>
    2304:	00163713          	seqz	a4,a2
    2308:	fff6c693          	not	a3,a3
    230c:	40c00633          	neg	a2,a2
    2310:	00e686b3          	add	a3,a3,a4

00002314 <sum>:
    2314:	fff38393          	addi	t2,t2,-1
    2318:	00000713          	li	a4,0
    231c:	02000793          	li	a5,32
    2320:	00f36a63          	bltu	t1,a5,2334 <sum+0x20>
    2324:	00060713          	mv	a4,a2
    2328:	00068613          	mv	a2,a3
    232c:	41f6d693          	srai	a3,a3,0x1f
    2330:	fe030313          	addi	t1,t1,-32
    2334:	02030863          	beqz	t1,2364 <sum+0x50>
    2338:	406782b3          	sub	t0,a5,t1
    233c:	005717b3          	sll	a5,a4,t0
    2340:	00675733          	srl	a4,a4,t1
    2344:	00f037b3          	snez	a5,a5
    2348:	00f76733          	or	a4,a4,a5
    234c:	005617b3          	sll	a5,a2,t0
    2350:	00f76733          	or	a4,a4,a5
    2354:	00665633          	srl	a2,a2,t1
    2358:	005697b3          	sll	a5,a3,t0
    235c:	00f66633          	or	a2,a2,a5
    2360:	4066d6b3          	sra	a3,a3,t1
    2364:	00c50533          	add	a0,a0,a2
    2368:	00c53633          	sltu	a2,a0,a2
    236c:	00c686b3          	add	a3,a3,a2
    2370:	00d585b3          	add	a1,a1,a3
    2374:	01f5d293          	srli	t0,a1,0x1f
    2378:	01f29293          	slli	t0,t0,0x1f
    237c:	0205d263          	bgez	a1,23a0 <pos_or_zero>
    2380:	40e00733          	neg	a4,a4
    2384:	00173793          	seqz	a5,a4
    2388:	fff54513          	not	a0,a0
    238c:	00f50533          	add	a0,a0,a5
    2390:	00153613          	seqz	a2,a0
    2394:	00f67633          	and	a2,a2,a5
    2398:	fff5c593          	not	a1,a1
    239c:	00c585b3          	add	a1,a1,a2

000023a0 <pos_or_zero>:
    23a0:	001007b7          	lui	a5,0x100
    23a4:	06f5e863          	bltu	a1,a5,2414 <num_canc>
    23a8:	00179793          	slli	a5,a5,0x1
    23ac:	02f5ea63          	bltu	a1,a5,23e0 <rounding>
    23b0:	00177793          	andi	a5,a4,1
    23b4:	00175713          	srli	a4,a4,0x1
    23b8:	00f76733          	or	a4,a4,a5
    23bc:	01f51793          	slli	a5,a0,0x1f
    23c0:	00f76733          	or	a4,a4,a5
    23c4:	00155513          	srli	a0,a0,0x1
    23c8:	01f59793          	slli	a5,a1,0x1f
    23cc:	00f56533          	or	a0,a0,a5
    23d0:	0015d593          	srli	a1,a1,0x1
    23d4:	00138393          	addi	t2,t2,1
    23d8:	7fe00793          	li	a5,2046
    23dc:	14f3de63          	bge	t2,a5,2538 <inf>

000023e0 <rounding>:
    23e0:	800007b7          	lui	a5,0x80000
    23e4:	00f76c63          	bltu	a4,a5,23fc <exp_sign_exit>
    23e8:	00150513          	addi	a0,a0,1
    23ec:	00153613          	seqz	a2,a0
    23f0:	00c585b3          	add	a1,a1,a2
    23f4:	00f71463          	bne	a4,a5,23fc <exp_sign_exit>
    23f8:	ffe57513          	andi	a0,a0,-2

000023fc <exp_sign_exit>:
    23fc:	00a5e633          	or	a2,a1,a0
    2400:	10060c63          	beqz	a2,2518 <signed_zero>
    2404:	01439393          	slli	t2,t2,0x14
    2408:	007585b3          	add	a1,a1,t2

0000240c <sign_and_exit>:
    240c:	0055e5b3          	or	a1,a1,t0

00002410 <exit>:
    2410:	00008067          	ret

00002414 <num_canc>:
    2414:	00159593          	slli	a1,a1,0x1
    2418:	01f55793          	srli	a5,a0,0x1f
    241c:	00f5e5b3          	or	a1,a1,a5
    2420:	00151513          	slli	a0,a0,0x1
    2424:	01f75793          	srli	a5,a4,0x1f
    2428:	00f56533          	or	a0,a0,a5
    242c:	00171713          	slli	a4,a4,0x1
    2430:	00038793          	mv	a5,t2
    2434:	fff38393          	addi	t2,t2,-1
    2438:	00078663          	beqz	a5,2444 <denormal_or_str_canc>
    243c:	001007b7          	lui	a5,0x100
    2440:	faf5f0e3          	bgeu	a1,a5,23e0 <rounding>

00002444 <denormal_or_str_canc>:
    2444:	00059863          	bnez	a1,2454 <denormal_or_str_canc+0x10>
    2448:	00050593          	mv	a1,a0
    244c:	00000513          	li	a0,0
    2450:	02000713          	li	a4,32
    2454:	00058693          	mv	a3,a1
    2458:	000107b7          	lui	a5,0x10
    245c:	00f6f663          	bgeu	a3,a5,2468 <denormal_or_str_canc+0x24>
    2460:	01069693          	slli	a3,a3,0x10
    2464:	01070713          	addi	a4,a4,16
    2468:	00479793          	slli	a5,a5,0x4
    246c:	00f6f663          	bgeu	a3,a5,2478 <denormal_or_str_canc+0x34>
    2470:	00c69693          	slli	a3,a3,0xc
    2474:	00c70713          	addi	a4,a4,12
    2478:	00479793          	slli	a5,a5,0x4
    247c:	00f6f663          	bgeu	a3,a5,2488 <denormal_or_str_canc+0x44>
    2480:	00869693          	slli	a3,a3,0x8
    2484:	00870713          	addi	a4,a4,8
    2488:	00479793          	slli	a5,a5,0x4
    248c:	00f6f663          	bgeu	a3,a5,2498 <denormal_or_str_canc+0x54>
    2490:	00469693          	slli	a3,a3,0x4
    2494:	00470713          	addi	a4,a4,4
    2498:	00279793          	slli	a5,a5,0x2
    249c:	00f6f663          	bgeu	a3,a5,24a8 <denormal_or_str_canc+0x64>
    24a0:	00269693          	slli	a3,a3,0x2
    24a4:	00270713          	addi	a4,a4,2
    24a8:	00179793          	slli	a5,a5,0x1
    24ac:	00f6f663          	bgeu	a3,a5,24b8 <denormal_or_str_canc+0x74>
    24b0:	00169693          	slli	a3,a3,0x1
    24b4:	00170713          	addi	a4,a4,1
    24b8:	ff570713          	addi	a4,a4,-11
    24bc:	04070863          	beqz	a4,250c <denormal_canc>
    24c0:	fe070613          	addi	a2,a4,-32
    24c4:	02065263          	bgez	a2,24e8 <denormal_or_str_canc+0xa4>
    24c8:	00c60613          	addi	a2,a2,12
    24cc:	00c05c63          	blez	a2,24e4 <denormal_or_str_canc+0xa0>
    24d0:	00c00693          	li	a3,12
    24d4:	40c68633          	sub	a2,a3,a2
    24d8:	00e59533          	sll	a0,a1,a4
    24dc:	00c5d5b3          	srl	a1,a1,a2
    24e0:	0200006f          	j	2500 <denormal_or_str_canc+0xbc>
    24e4:	01460613          	addi	a2,a2,20
    24e8:	00c595b3          	sll	a1,a1,a2
    24ec:	02000693          	li	a3,32
    24f0:	40c686b3          	sub	a3,a3,a2
    24f4:	00d556b3          	srl	a3,a0,a3
    24f8:	00d5e5b3          	or	a1,a1,a3
    24fc:	00c51533          	sll	a0,a0,a2
    2500:	40e383b3          	sub	t2,t2,a4
    2504:	0003c463          	bltz	t2,250c <denormal_canc>
    2508:	ef5ff06f          	j	23fc <exp_sign_exit>

0000250c <denormal_canc>:
    250c:	00000593          	li	a1,0
    2510:	02c0006f          	j	253c <sign_zero_xl>

00002514 <both_denormals>:
    2514:	00d5f5b3          	and	a1,a1,a3

00002518 <signed_zero>:
    2518:	01f5d593          	srli	a1,a1,0x1f
    251c:	01f59593          	slli	a1,a1,0x1f

00002520 <zero_xl>:
    2520:	00000513          	li	a0,0
    2524:	eedff06f          	j	2410 <exit>

00002528 <zero_operand>:
    2528:	fe0286e3          	beqz	t0,2514 <both_denormals>
    252c:	00068593          	mv	a1,a3
    2530:	00060513          	mv	a0,a2

00002534 <zero_operand_Y>:
    2534:	eddff06f          	j	2410 <exit>

00002538 <inf>:
    2538:	7ff005b7          	lui	a1,0x7ff00

0000253c <sign_zero_xl>:
    253c:	0055e5b3          	or	a1,a1,t0
    2540:	00000513          	li	a0,0
    2544:	ecdff06f          	j	2410 <exit>

00002548 <infnan_B_only>:
    2548:	00068593          	mv	a1,a3
    254c:	00060513          	mv	a0,a2
    2550:	00028393          	mv	t2,t0
    2554:	0100006f          	j	2564 <infnan_end>

00002558 <infnan>:
    2558:	00f2f663          	bgeu	t0,a5,2564 <infnan_end>
    255c:	00058693          	mv	a3,a1
    2560:	00050613          	mv	a2,a0

00002564 <infnan_end>:
    2564:	00b39393          	slli	t2,t2,0xb
    2568:	00a3e3b3          	or	t2,t2,a0
    256c:	00039863          	bnez	t2,257c <produce_nan>
    2570:	00c51663          	bne	a0,a2,257c <produce_nan>
    2574:	00d59463          	bne	a1,a3,257c <produce_nan>
    2578:	e99ff06f          	j	2410 <exit>

0000257c <produce_nan>:
    257c:	7ff805b7          	lui	a1,0x7ff80
    2580:	fa1ff06f          	j	2520 <zero_xl>

00002584 <__fixdfsi>:
    2584:	80000737          	lui	a4,0x80000
    2588:	41f5d793          	srai	a5,a1,0x1f
    258c:	00159593          	slli	a1,a1,0x1
    2590:	0155d613          	srli	a2,a1,0x15
    2594:	c0160613          	addi	a2,a2,-1023
    2598:	02064e63          	bltz	a2,25d4 <undflow>
    259c:	40c00633          	neg	a2,a2
    25a0:	01f60613          	addi	a2,a2,31
    25a4:	02c05263          	blez	a2,25c8 <ovflow>
    25a8:	00a59593          	slli	a1,a1,0xa
    25ac:	01555513          	srli	a0,a0,0x15
    25b0:	00a5e5b3          	or	a1,a1,a0
    25b4:	00e5e5b3          	or	a1,a1,a4
    25b8:	00c5d533          	srl	a0,a1,a2
    25bc:	00f54533          	xor	a0,a0,a5
    25c0:	40f50533          	sub	a0,a0,a5
    25c4:	00008067          	ret

000025c8 <ovflow>:
    25c8:	fff70513          	addi	a0,a4,-1 # 7fffffff <_stack_end+0x7fefd6af>
    25cc:	00f54533          	xor	a0,a0,a5
    25d0:	00008067          	ret

000025d4 <undflow>:
    25d4:	00000513          	li	a0,0
    25d8:	00008067          	ret

000025dc <__floatsidf>:
    25dc:	41f55793          	srai	a5,a0,0x1f
    25e0:	00f545b3          	xor	a1,a0,a5
    25e4:	40f585b3          	sub	a1,a1,a5
    25e8:	02050863          	beqz	a0,2618 <exit>
    25ec:	01f79793          	slli	a5,a5,0x1f
    25f0:	41d00613          	li	a2,1053
    25f4:	0005c863          	bltz	a1,2604 <__floatsidf+0x28>
    25f8:	fff60613          	addi	a2,a2,-1
    25fc:	00159593          	slli	a1,a1,0x1
    2600:	feb04ce3          	bgtz	a1,25f8 <__floatsidf+0x1c>
    2604:	01559513          	slli	a0,a1,0x15
    2608:	00b5d593          	srli	a1,a1,0xb
    260c:	01461613          	slli	a2,a2,0x14
    2610:	00c585b3          	add	a1,a1,a2
    2614:	00f5e5b3          	or	a1,a1,a5

00002618 <exit>:
    2618:	00008067          	ret

0000261c <__muldf3>:
    261c:	00d5c733          	xor	a4,a1,a3
    2620:	800007b7          	lui	a5,0x80000
    2624:	00f772b3          	and	t0,a4,a5
    2628:	7ff00793          	li	a5,2047
    262c:	0145d713          	srli	a4,a1,0x14
    2630:	00f77733          	and	a4,a4,a5
    2634:	0146d313          	srli	t1,a3,0x14
    2638:	00f37333          	and	t1,t1,a5
    263c:	10f70863          	beq	a4,a5,274c <inf_nan>
    2640:	10f30663          	beq	t1,a5,274c <inf_nan>
    2644:	0e070e63          	beqz	a4,2740 <signed_zero>
    2648:	0e030c63          	beqz	t1,2740 <signed_zero>

0000264c <normal_case>:
    264c:	00670733          	add	a4,a4,t1
    2650:	fff007b7          	lui	a5,0xfff00
    2654:	fff7c793          	not	a5,a5
    2658:	00f5f5b3          	and	a1,a1,a5
    265c:	00f6f6b3          	and	a3,a3,a5
    2660:	001007b7          	lui	a5,0x100
    2664:	00f5e5b3          	or	a1,a1,a5
    2668:	00f6e6b3          	or	a3,a3,a5
    266c:	02c58333          	mul	t1,a1,a2
    2670:	02d507b3          	mul	a5,a0,a3
    2674:	00f30333          	add	t1,t1,a5
    2678:	00f337b3          	sltu	a5,t1,a5
    267c:	02c5b3b3          	mulhu	t2,a1,a2
    2680:	00f383b3          	add	t2,t2,a5
    2684:	02d537b3          	mulhu	a5,a0,a3
    2688:	00f383b3          	add	t2,t2,a5
    268c:	02c507b3          	mul	a5,a0,a2
    2690:	02c53633          	mulhu	a2,a0,a2
    2694:	02d58533          	mul	a0,a1,a3
    2698:	02d5b5b3          	mulhu	a1,a1,a3
    269c:	00660633          	add	a2,a2,t1
    26a0:	00663333          	sltu	t1,a2,t1
    26a4:	006383b3          	add	t2,t2,t1
    26a8:	00750533          	add	a0,a0,t2
    26ac:	007533b3          	sltu	t2,a0,t2
    26b0:	007585b3          	add	a1,a1,t2
    26b4:	00f037b3          	snez	a5,a5
    26b8:	00f66633          	or	a2,a2,a5
    26bc:	20000393          	li	t2,512
    26c0:	0275f263          	bgeu	a1,t2,26e4 <normal_case+0x98>
    26c4:	00159593          	slli	a1,a1,0x1
    26c8:	01f55793          	srli	a5,a0,0x1f
    26cc:	00f5e5b3          	or	a1,a1,a5
    26d0:	00151513          	slli	a0,a0,0x1
    26d4:	01f65793          	srli	a5,a2,0x1f
    26d8:	00f56533          	or	a0,a0,a5
    26dc:	00161613          	slli	a2,a2,0x1
    26e0:	fff70713          	addi	a4,a4,-1
    26e4:	00b59593          	slli	a1,a1,0xb
    26e8:	01555793          	srli	a5,a0,0x15
    26ec:	00f5e5b3          	or	a1,a1,a5
    26f0:	00b51513          	slli	a0,a0,0xb
    26f4:	01565793          	srli	a5,a2,0x15
    26f8:	00f56533          	or	a0,a0,a5
    26fc:	00b61613          	slli	a2,a2,0xb
    2700:	c0170713          	addi	a4,a4,-1023
    2704:	7fe00313          	li	t1,2046
    2708:	02677863          	bgeu	a4,t1,2738 <und_ov_flow>
    270c:	01471713          	slli	a4,a4,0x14
    2710:	00e585b3          	add	a1,a1,a4

00002714 <rounding>:
    2714:	800007b7          	lui	a5,0x80000
    2718:	00f66c63          	bltu	a2,a5,2730 <exit>
    271c:	00150513          	addi	a0,a0,1
    2720:	00153313          	seqz	t1,a0
    2724:	006585b3          	add	a1,a1,t1
    2728:	00f61463          	bne	a2,a5,2730 <exit>
    272c:	ffe57513          	andi	a0,a0,-2

00002730 <exit>:
    2730:	0055e5b3          	or	a1,a1,t0
    2734:	00008067          	ret

00002738 <und_ov_flow>:
    2738:	04e04463          	bgtz	a4,2780 <inf>
    273c:	0040006f          	j	2740 <signed_zero>

00002740 <signed_zero>:
    2740:	00028593          	mv	a1,t0

00002744 <zero_xl>:
    2744:	00000513          	li	a0,0
    2748:	00008067          	ret

0000274c <inf_nan>:
    274c:	7ff00393          	li	t2,2047
    2750:	01571793          	slli	a5,a4,0x15
    2754:	02078c63          	beqz	a5,278c <nan>
    2758:	01531793          	slli	a5,t1,0x15
    275c:	02078863          	beqz	a5,278c <nan>
    2760:	00771863          	bne	a4,t2,2770 <inf_nan+0x24>
    2764:	00c59793          	slli	a5,a1,0xc
    2768:	00a7e7b3          	or	a5,a5,a0
    276c:	02079063          	bnez	a5,278c <nan>
    2770:	00731863          	bne	t1,t2,2780 <inf>
    2774:	00c69713          	slli	a4,a3,0xc
    2778:	00c76733          	or	a4,a4,a2
    277c:	00071863          	bnez	a4,278c <nan>

00002780 <inf>:
    2780:	7ff005b7          	lui	a1,0x7ff00
    2784:	0055e5b3          	or	a1,a1,t0
    2788:	fbdff06f          	j	2744 <zero_xl>

0000278c <nan>:
    278c:	7ff805b7          	lui	a1,0x7ff80
    2790:	fb5ff06f          	j	2744 <zero_xl>

Disassembly of section .srodata.cst8:

00002878 <.srodata.cst8>:
    2878:	7ae1                	.insn	2, 0x7ae1
    287a:	ae14                	.insn	2, 0xae14
    287c:	3feee147          	.insn	4, 0x3feee147
    2880:	53f8                	.insn	2, 0x53f8
    2882:	c49ba5e3          	.insn	4, 0xc49ba5e3
    2886:	3fd0                	.insn	2, 0x3fd0
    2888:	5604                	.insn	2, 0x5604
    288a:	2d0e                	.insn	2, 0x2d0e
    288c:	9db2                	.insn	2, 0x9db2
    288e:	d4fe3feb          	.insn	4, 0xd4fe3feb
    2892:	e978                	.insn	2, 0xe978
    2894:	3126                	.insn	2, 0x3126
    2896:	3fe0                	.insn	2, 0x3fe0
    2898:	b439                	.insn	2, 0xb439
    289a:	76c8                	.insn	2, 0x76c8
    289c:	9fbe                	.insn	2, 0x9fbe
    289e:	3fe6                	.insn	2, 0x3fe6
    28a0:	1cac                	.insn	2, 0x1cac
    28a2:	645a                	.insn	2, 0x645a
    28a4:	3fdfdf3b          	.insn	4, 0x3fdfdf3b
    28a8:	3958                	.insn	2, 0x3958
    28aa:	c8b4                	.insn	2, 0xc8b4
    28ac:	be76                	.insn	2, 0xbe76
    28ae:	8d503feb          	.insn	4, 0x8d503feb
    28b2:	83126e97          	auipc	t4,0x83126
    28b6:	3fd0                	.insn	2, 0x3fd0
    28b8:	f3b6                	.insn	2, 0xf3b6
    28ba:	d4fd                	.insn	2, 0xd4fd
    28bc:	e978                	.insn	2, 0xe978
    28be:	3fee                	.insn	2, 0x3fee
    28c0:	999a                	.insn	2, 0x999a
    28c2:	9999                	.insn	2, 0x9999
    28c4:	9999                	.insn	2, 0x9999
    28c6:	3fb9                	.insn	2, 0x3fb9
