
main.elf:     file format elf32-littleriscv


Disassembly of section .text:

00000000 <_isr_handler>:
       0:	0080006f          	j	8 <_isr_routine>
       4:	1440006f          	j	148 <_start>

00000008 <_isr_routine>:
       8:	f8010113          	addi	sp,sp,-128
       c:	00112023          	sw	ra,0(sp)
      10:	00312423          	sw	gp,8(sp)
      14:	00412623          	sw	tp,12(sp)
      18:	00512823          	sw	t0,16(sp)
      1c:	00612a23          	sw	t1,20(sp)
      20:	00712c23          	sw	t2,24(sp)
      24:	00812e23          	sw	s0,28(sp)
      28:	02912023          	sw	s1,32(sp)
      2c:	02a12223          	sw	a0,36(sp)
      30:	02b12423          	sw	a1,40(sp)
      34:	02c12623          	sw	a2,44(sp)
      38:	02d12823          	sw	a3,48(sp)
      3c:	02e12a23          	sw	a4,52(sp)
      40:	02f12c23          	sw	a5,56(sp)
      44:	03012e23          	sw	a6,60(sp)
      48:	05112023          	sw	a7,64(sp)
      4c:	05212223          	sw	s2,68(sp)
      50:	05312423          	sw	s3,72(sp)
      54:	05412623          	sw	s4,76(sp)
      58:	05512823          	sw	s5,80(sp)
      5c:	05612a23          	sw	s6,84(sp)
      60:	05712c23          	sw	s7,88(sp)
      64:	05812e23          	sw	s8,92(sp)
      68:	07912023          	sw	s9,96(sp)
      6c:	07a12223          	sw	s10,100(sp)
      70:	07b12423          	sw	s11,104(sp)
      74:	07c12623          	sw	t3,108(sp)
      78:	07d12823          	sw	t4,112(sp)
      7c:	07e12a23          	sw	t5,116(sp)
      80:	07f12c23          	sw	t6,120(sp)
      84:	342022f3          	csrr	t0,mcause
      88:	80000337          	lui	t1,0x80000
      8c:	02536463          	bltu	t1,t0,b4 <external_irq>
      90:	00028833          	add	a6,t0,zero
      94:	00b00313          	li	t1,11
      98:	00628463          	beq	t0,t1,a0 <skip_init_args>
      9c:	34102573          	csrr	a0,mepc

000000a0 <skip_init_args>:
      a0:	4b1010ef          	jal	1d50 <handle_exception>
      a4:	341022f3          	csrr	t0,mepc
      a8:	00428293          	addi	t0,t0,4
      ac:	34129073          	csrw	mepc,t0
      b0:	0180006f          	j	c8 <restore>

000000b4 <external_irq>:
      b4:	800002b7          	lui	t0,0x80000
      b8:	fff28293          	addi	t0,t0,-1 # 7fffffff <_stack_end+0x7fefdb3f>
      bc:	34202373          	csrr	t1,mcause
      c0:	0062f533          	and	a0,t0,t1
      c4:	0ac000ef          	jal	170 <handle_interrupt>

000000c8 <restore>:
      c8:	00012083          	lw	ra,0(sp)
      cc:	00812183          	lw	gp,8(sp)
      d0:	00c12203          	lw	tp,12(sp)
      d4:	01012283          	lw	t0,16(sp)
      d8:	01412303          	lw	t1,20(sp)
      dc:	01812383          	lw	t2,24(sp)
      e0:	01c12403          	lw	s0,28(sp)
      e4:	02012483          	lw	s1,32(sp)
      e8:	02412503          	lw	a0,36(sp)
      ec:	02812583          	lw	a1,40(sp)
      f0:	02c12603          	lw	a2,44(sp)
      f4:	03012683          	lw	a3,48(sp)
      f8:	03412703          	lw	a4,52(sp)
      fc:	03812783          	lw	a5,56(sp)
     100:	03c12803          	lw	a6,60(sp)
     104:	04012883          	lw	a7,64(sp)
     108:	04412903          	lw	s2,68(sp)
     10c:	04812983          	lw	s3,72(sp)
     110:	04c12a03          	lw	s4,76(sp)
     114:	05012a83          	lw	s5,80(sp)
     118:	05412b03          	lw	s6,84(sp)
     11c:	05812b83          	lw	s7,88(sp)
     120:	05c12c03          	lw	s8,92(sp)
     124:	06012c83          	lw	s9,96(sp)
     128:	06412d03          	lw	s10,100(sp)
     12c:	06812d83          	lw	s11,104(sp)
     130:	06c12e03          	lw	t3,108(sp)
     134:	07012e83          	lw	t4,112(sp)
     138:	07412f03          	lw	t5,116(sp)
     13c:	07812f83          	lw	t6,120(sp)
     140:	08010113          	addi	sp,sp,128
     144:	30200073          	mret

00000148 <_start>:
     148:	00102117          	auipc	sp,0x102
     14c:	37810113          	addi	sp,sp,888 # 1024c0 <_stack_end>
     150:	00003197          	auipc	gp,0x3
     154:	a6c18193          	addi	gp,gp,-1428 # 2bbc <__global_pointer>
     158:	00002517          	auipc	a0,0x2
     15c:	1d050513          	addi	a0,a0,464 # 2328 <welcome_msg>
     160:	00400893          	li	a7,4
     164:	00000073          	ecall
     168:	634000ef          	jal	79c <main>

0000016c <loop>:
     16c:	0000006f          	j	16c <loop>

00000170 <handle_interrupt>:
     170:	00008067          	ret

00000174 <reset_screen>:
     174:	000136b7          	lui	a3,0x13
     178:	00000793          	li	a5,0
     17c:	00002637          	lui	a2,0x2
     180:	c0068693          	addi	a3,a3,-1024 # 12c00 <__global_pointer+0x10044>
     184:	3c062703          	lw	a4,960(a2) # 23c0 <VGA>
     188:	00f70733          	add	a4,a4,a5
     18c:	00070023          	sb	zero,0(a4)
     190:	00178793          	addi	a5,a5,1
     194:	fed798e3          	bne	a5,a3,184 <reset_screen+0x10>
     198:	00008067          	ret

0000019c <ball_clear>:
     19c:	00002eb7          	lui	t4,0x2
     1a0:	3c4ea583          	lw	a1,964(t4) # 23c4 <ball_size>
     1a4:	00000893          	li	a7,0
     1a8:	00002537          	lui	a0,0x2
     1ac:	06b05263          	blez	a1,210 <ball_clear+0x74>
     1b0:	13f00813          	li	a6,319
     1b4:	00002e37          	lui	t3,0x2
     1b8:	0ef00313          	li	t1,239
     1bc:	00002fb7          	lui	t6,0x2
     1c0:	fff00f13          	li	t5,-1
     1c4:	00000713          	li	a4,0
     1c8:	3d052783          	lw	a5,976(a0) # 23d0 <ball_x>
     1cc:	00f707b3          	add	a5,a4,a5
     1d0:	00170713          	addi	a4,a4,1
     1d4:	02f86863          	bltu	a6,a5,204 <ball_clear+0x68>
     1d8:	3cce2603          	lw	a2,972(t3) # 23cc <ball_y>
     1dc:	00c88633          	add	a2,a7,a2
     1e0:	00261693          	slli	a3,a2,0x2
     1e4:	00c686b3          	add	a3,a3,a2
     1e8:	00669693          	slli	a3,a3,0x6
     1ec:	00f686b3          	add	a3,a3,a5
     1f0:	00c36a63          	bltu	t1,a2,204 <ball_clear+0x68>
     1f4:	3c0fa783          	lw	a5,960(t6) # 23c0 <VGA>
     1f8:	00d787b3          	add	a5,a5,a3
     1fc:	01e78023          	sb	t5,0(a5)
     200:	3c4ea583          	lw	a1,964(t4)
     204:	fcb742e3          	blt	a4,a1,1c8 <ball_clear+0x2c>
     208:	00188893          	addi	a7,a7,1
     20c:	fab8cce3          	blt	a7,a1,1c4 <ball_clear+0x28>
     210:	00008067          	ret

00000214 <draw_ball>:
     214:	00002eb7          	lui	t4,0x2
     218:	3c4ea583          	lw	a1,964(t4) # 23c4 <ball_size>
     21c:	0cb05063          	blez	a1,2dc <draw_ball+0xc8>
     220:	00000293          	li	t0,0
     224:	00002837          	lui	a6,0x2
     228:	13f00513          	li	a0,319
     22c:	00002e37          	lui	t3,0x2
     230:	0ef00313          	li	t1,239
     234:	00002fb7          	lui	t6,0x2
     238:	fff00f13          	li	t5,-1
     23c:	00000713          	li	a4,0
     240:	3d082783          	lw	a5,976(a6) # 23d0 <ball_x>
     244:	00f707b3          	add	a5,a4,a5
     248:	00170713          	addi	a4,a4,1
     24c:	02f56863          	bltu	a0,a5,27c <draw_ball+0x68>
     250:	3cce2603          	lw	a2,972(t3) # 23cc <ball_y>
     254:	00c28633          	add	a2,t0,a2
     258:	00261693          	slli	a3,a2,0x2
     25c:	00c686b3          	add	a3,a3,a2
     260:	00669693          	slli	a3,a3,0x6
     264:	00f686b3          	add	a3,a3,a5
     268:	00c36a63          	bltu	t1,a2,27c <draw_ball+0x68>
     26c:	3c0fa783          	lw	a5,960(t6) # 23c0 <VGA>
     270:	00d787b3          	add	a5,a5,a3
     274:	01e78023          	sb	t5,0(a5)
     278:	3c4ea583          	lw	a1,964(t4)
     27c:	fcb742e3          	blt	a4,a1,240 <draw_ball+0x2c>
     280:	04b05e63          	blez	a1,2dc <draw_ball+0xc8>
     284:	00000893          	li	a7,0
     288:	00000713          	li	a4,0
     28c:	3d082783          	lw	a5,976(a6)
     290:	00f707b3          	add	a5,a4,a5
     294:	00170713          	addi	a4,a4,1
     298:	02f56863          	bltu	a0,a5,2c8 <draw_ball+0xb4>
     29c:	3cce2603          	lw	a2,972(t3)
     2a0:	00c88633          	add	a2,a7,a2
     2a4:	00261693          	slli	a3,a2,0x2
     2a8:	00c686b3          	add	a3,a3,a2
     2ac:	00669693          	slli	a3,a3,0x6
     2b0:	00f686b3          	add	a3,a3,a5
     2b4:	00c36a63          	bltu	t1,a2,2c8 <draw_ball+0xb4>
     2b8:	3c0fa783          	lw	a5,960(t6)
     2bc:	00d787b3          	add	a5,a5,a3
     2c0:	01e78023          	sb	t5,0(a5)
     2c4:	3c4ea583          	lw	a1,964(t4)
     2c8:	fcb742e3          	blt	a4,a1,28c <draw_ball+0x78>
     2cc:	00188893          	addi	a7,a7,1
     2d0:	fab8cce3          	blt	a7,a1,288 <draw_ball+0x74>
     2d4:	00128293          	addi	t0,t0,1
     2d8:	f6b2c2e3          	blt	t0,a1,23c <draw_ball+0x28>
     2dc:	00008067          	ret

000002e0 <draw_paddle1>:
     2e0:	000028b7          	lui	a7,0x2
     2e4:	3c88a683          	lw	a3,968(a7) # 23c8 <paddle_height>
     2e8:	00000593          	li	a1,0
     2ec:	00002837          	lui	a6,0x2
     2f0:	14d05863          	blez	a3,440 <draw_paddle1+0x160>
     2f4:	0ef00513          	li	a0,239
     2f8:	00002e37          	lui	t3,0x2
     2fc:	fff00313          	li	t1,-1
     300:	3d882703          	lw	a4,984(a6) # 23d8 <player1_y>
     304:	01f6d613          	srli	a2,a3,0x1f
     308:	00d607b3          	add	a5,a2,a3
     30c:	4017d793          	srai	a5,a5,0x1
     310:	40f707b3          	sub	a5,a4,a5
     314:	00b787b3          	add	a5,a5,a1
     318:	02f56663          	bltu	a0,a5,344 <draw_paddle1+0x64>
     31c:	00279713          	slli	a4,a5,0x2
     320:	3c0e2683          	lw	a3,960(t3) # 23c0 <VGA>
     324:	00f707b3          	add	a5,a4,a5
     328:	00679793          	slli	a5,a5,0x6
     32c:	00878793          	addi	a5,a5,8
     330:	00f687b3          	add	a5,a3,a5
     334:	00678023          	sb	t1,0(a5)
     338:	3c88a683          	lw	a3,968(a7)
     33c:	3d882703          	lw	a4,984(a6)
     340:	01f6d613          	srli	a2,a3,0x1f
     344:	00d60633          	add	a2,a2,a3
     348:	40165613          	srai	a2,a2,0x1
     34c:	40c70733          	sub	a4,a4,a2
     350:	00b70733          	add	a4,a4,a1
     354:	0e074263          	bltz	a4,438 <draw_paddle1+0x158>
     358:	0ee54063          	blt	a0,a4,438 <draw_paddle1+0x158>
     35c:	00271793          	slli	a5,a4,0x2
     360:	3c0e2683          	lw	a3,960(t3)
     364:	00e787b3          	add	a5,a5,a4
     368:	00679793          	slli	a5,a5,0x6
     36c:	00978793          	addi	a5,a5,9
     370:	00f687b3          	add	a5,a3,a5
     374:	00678023          	sb	t1,0(a5)
     378:	3c88a683          	lw	a3,968(a7)
     37c:	3d882783          	lw	a5,984(a6)
     380:	01f6d713          	srli	a4,a3,0x1f
     384:	00d70733          	add	a4,a4,a3
     388:	40175713          	srai	a4,a4,0x1
     38c:	40e787b3          	sub	a5,a5,a4
     390:	00b787b3          	add	a5,a5,a1
     394:	0a07c263          	bltz	a5,438 <draw_paddle1+0x158>
     398:	0af54063          	blt	a0,a5,438 <draw_paddle1+0x158>
     39c:	00279713          	slli	a4,a5,0x2
     3a0:	3c0e2683          	lw	a3,960(t3)
     3a4:	00f707b3          	add	a5,a4,a5
     3a8:	00679793          	slli	a5,a5,0x6
     3ac:	00a78793          	addi	a5,a5,10
     3b0:	00f687b3          	add	a5,a3,a5
     3b4:	00678023          	sb	t1,0(a5)
     3b8:	3c88a683          	lw	a3,968(a7)
     3bc:	3d882783          	lw	a5,984(a6)
     3c0:	01f6d713          	srli	a4,a3,0x1f
     3c4:	00d70733          	add	a4,a4,a3
     3c8:	40175713          	srai	a4,a4,0x1
     3cc:	40e787b3          	sub	a5,a5,a4
     3d0:	00b787b3          	add	a5,a5,a1
     3d4:	0607c263          	bltz	a5,438 <draw_paddle1+0x158>
     3d8:	06f54063          	blt	a0,a5,438 <draw_paddle1+0x158>
     3dc:	00279713          	slli	a4,a5,0x2
     3e0:	3c0e2683          	lw	a3,960(t3)
     3e4:	00f707b3          	add	a5,a4,a5
     3e8:	00679793          	slli	a5,a5,0x6
     3ec:	00b78793          	addi	a5,a5,11
     3f0:	00f687b3          	add	a5,a3,a5
     3f4:	00678023          	sb	t1,0(a5)
     3f8:	3c88a683          	lw	a3,968(a7)
     3fc:	3d882703          	lw	a4,984(a6)
     400:	01f6d793          	srli	a5,a3,0x1f
     404:	00d787b3          	add	a5,a5,a3
     408:	4017d793          	srai	a5,a5,0x1
     40c:	40f70733          	sub	a4,a4,a5
     410:	00b70733          	add	a4,a4,a1
     414:	02e56263          	bltu	a0,a4,438 <draw_paddle1+0x158>
     418:	00271793          	slli	a5,a4,0x2
     41c:	3c0e2683          	lw	a3,960(t3)
     420:	00e787b3          	add	a5,a5,a4
     424:	00679793          	slli	a5,a5,0x6
     428:	00c78793          	addi	a5,a5,12
     42c:	00f687b3          	add	a5,a3,a5
     430:	00678023          	sb	t1,0(a5)
     434:	3c88a683          	lw	a3,968(a7)
     438:	00158593          	addi	a1,a1,1
     43c:	ecd5c2e3          	blt	a1,a3,300 <draw_paddle1+0x20>
     440:	00008067          	ret

00000444 <draw_paddle2>:
     444:	000028b7          	lui	a7,0x2
     448:	3c88a683          	lw	a3,968(a7) # 23c8 <paddle_height>
     44c:	00000593          	li	a1,0
     450:	00002837          	lui	a6,0x2
     454:	14d05863          	blez	a3,5a4 <draw_paddle2+0x160>
     458:	0ef00513          	li	a0,239
     45c:	00002e37          	lui	t3,0x2
     460:	fff00313          	li	t1,-1
     464:	3d482703          	lw	a4,980(a6) # 23d4 <player2_y>
     468:	01f6d613          	srli	a2,a3,0x1f
     46c:	00d607b3          	add	a5,a2,a3
     470:	4017d793          	srai	a5,a5,0x1
     474:	40f707b3          	sub	a5,a4,a5
     478:	00b787b3          	add	a5,a5,a1
     47c:	02f56663          	bltu	a0,a5,4a8 <draw_paddle2+0x64>
     480:	00279713          	slli	a4,a5,0x2
     484:	3c0e2683          	lw	a3,960(t3) # 23c0 <VGA>
     488:	00f707b3          	add	a5,a4,a5
     48c:	00679793          	slli	a5,a5,0x6
     490:	13b78793          	addi	a5,a5,315
     494:	00f687b3          	add	a5,a3,a5
     498:	00678023          	sb	t1,0(a5)
     49c:	3c88a683          	lw	a3,968(a7)
     4a0:	3d482703          	lw	a4,980(a6)
     4a4:	01f6d613          	srli	a2,a3,0x1f
     4a8:	00d60633          	add	a2,a2,a3
     4ac:	40165613          	srai	a2,a2,0x1
     4b0:	40c70733          	sub	a4,a4,a2
     4b4:	00b70733          	add	a4,a4,a1
     4b8:	0e074263          	bltz	a4,59c <draw_paddle2+0x158>
     4bc:	0ee54063          	blt	a0,a4,59c <draw_paddle2+0x158>
     4c0:	00271793          	slli	a5,a4,0x2
     4c4:	3c0e2683          	lw	a3,960(t3)
     4c8:	00e787b3          	add	a5,a5,a4
     4cc:	00679793          	slli	a5,a5,0x6
     4d0:	13c78793          	addi	a5,a5,316
     4d4:	00f687b3          	add	a5,a3,a5
     4d8:	00678023          	sb	t1,0(a5)
     4dc:	3c88a683          	lw	a3,968(a7)
     4e0:	3d482783          	lw	a5,980(a6)
     4e4:	01f6d713          	srli	a4,a3,0x1f
     4e8:	00d70733          	add	a4,a4,a3
     4ec:	40175713          	srai	a4,a4,0x1
     4f0:	40e787b3          	sub	a5,a5,a4
     4f4:	00b787b3          	add	a5,a5,a1
     4f8:	0a07c263          	bltz	a5,59c <draw_paddle2+0x158>
     4fc:	0af54063          	blt	a0,a5,59c <draw_paddle2+0x158>
     500:	00279713          	slli	a4,a5,0x2
     504:	3c0e2683          	lw	a3,960(t3)
     508:	00f707b3          	add	a5,a4,a5
     50c:	00679793          	slli	a5,a5,0x6
     510:	13d78793          	addi	a5,a5,317
     514:	00f687b3          	add	a5,a3,a5
     518:	00678023          	sb	t1,0(a5)
     51c:	3c88a683          	lw	a3,968(a7)
     520:	3d482783          	lw	a5,980(a6)
     524:	01f6d713          	srli	a4,a3,0x1f
     528:	00d70733          	add	a4,a4,a3
     52c:	40175713          	srai	a4,a4,0x1
     530:	40e787b3          	sub	a5,a5,a4
     534:	00b787b3          	add	a5,a5,a1
     538:	0607c263          	bltz	a5,59c <draw_paddle2+0x158>
     53c:	06f54063          	blt	a0,a5,59c <draw_paddle2+0x158>
     540:	00279713          	slli	a4,a5,0x2
     544:	3c0e2683          	lw	a3,960(t3)
     548:	00f707b3          	add	a5,a4,a5
     54c:	00679793          	slli	a5,a5,0x6
     550:	13e78793          	addi	a5,a5,318
     554:	00f687b3          	add	a5,a3,a5
     558:	00678023          	sb	t1,0(a5)
     55c:	3c88a683          	lw	a3,968(a7)
     560:	3d482703          	lw	a4,980(a6)
     564:	01f6d793          	srli	a5,a3,0x1f
     568:	00d787b3          	add	a5,a5,a3
     56c:	4017d793          	srai	a5,a5,0x1
     570:	40f70733          	sub	a4,a4,a5
     574:	00b70733          	add	a4,a4,a1
     578:	02e56263          	bltu	a0,a4,59c <draw_paddle2+0x158>
     57c:	00271793          	slli	a5,a4,0x2
     580:	3c0e2683          	lw	a3,960(t3)
     584:	00e787b3          	add	a5,a5,a4
     588:	00679793          	slli	a5,a5,0x6
     58c:	13f78793          	addi	a5,a5,319
     590:	00f687b3          	add	a5,a3,a5
     594:	00678023          	sb	t1,0(a5)
     598:	3c88a683          	lw	a3,968(a7)
     59c:	00158593          	addi	a1,a1,1
     5a0:	ecd5c2e3          	blt	a1,a3,464 <draw_paddle2+0x20>
     5a4:	00008067          	ret

000005a8 <draw_diagonal_line_ltr>:
     5a8:	00008337          	lui	t1,0x8
     5ac:	d0030313          	addi	t1,t1,-768 # 7d00 <__global_pointer+0x5144>
     5b0:	06400713          	li	a4,100
     5b4:	14000613          	li	a2,320
     5b8:	000028b7          	lui	a7,0x2
     5bc:	fff00813          	li	a6,-1
     5c0:	08d00e13          	li	t3,141
     5c4:	02330593          	addi	a1,t1,35
     5c8:	03200793          	li	a5,50
     5cc:	00170513          	addi	a0,a4,1
     5d0:	00e585b3          	add	a1,a1,a4
     5d4:	00f70e63          	beq	a4,a5,5f0 <draw_diagonal_line_ltr+0x48>
     5d8:	00178793          	addi	a5,a5,1
     5dc:	fec79ce3          	bne	a5,a2,5d4 <draw_diagonal_line_ltr+0x2c>
     5e0:	00050713          	mv	a4,a0
     5e4:	14030313          	addi	t1,t1,320
     5e8:	fdc51ee3          	bne	a0,t3,5c4 <draw_diagonal_line_ltr+0x1c>
     5ec:	00008067          	ret
     5f0:	3c08a683          	lw	a3,960(a7) # 23c0 <VGA>
     5f4:	00050793          	mv	a5,a0
     5f8:	00b686b3          	add	a3,a3,a1
     5fc:	01068023          	sb	a6,0(a3)
     600:	fd5ff06f          	j	5d4 <draw_diagonal_line_ltr+0x2c>

00000604 <draw_diagonal_line_rtl>:
     604:	0000b8b7          	lui	a7,0xb
     608:	f0088893          	addi	a7,a7,-256 # af00 <__global_pointer+0x8344>
     60c:	08c00713          	li	a4,140
     610:	0f000613          	li	a2,240
     614:	00002837          	lui	a6,0x2
     618:	fff00513          	li	a0,-1
     61c:	06300313          	li	t1,99
     620:	11388593          	addi	a1,a7,275
     624:	01400793          	li	a5,20
     628:	40e585b3          	sub	a1,a1,a4
     62c:	00f70e63          	beq	a4,a5,648 <draw_diagonal_line_rtl+0x44>
     630:	00178793          	addi	a5,a5,1
     634:	fec79ce3          	bne	a5,a2,62c <draw_diagonal_line_rtl+0x28>
     638:	fff70713          	addi	a4,a4,-1
     63c:	ec088893          	addi	a7,a7,-320
     640:	fe6710e3          	bne	a4,t1,620 <draw_diagonal_line_rtl+0x1c>
     644:	00008067          	ret
     648:	3c082683          	lw	a3,960(a6) # 23c0 <VGA>
     64c:	00170793          	addi	a5,a4,1
     650:	00b686b3          	add	a3,a3,a1
     654:	00a68023          	sb	a0,0(a3)
     658:	fd5ff06f          	j	62c <draw_diagonal_line_rtl+0x28>

0000065c <green_screen>:
     65c:	000136b7          	lui	a3,0x13
     660:	00000793          	li	a5,0
     664:	000025b7          	lui	a1,0x2
     668:	03100613          	li	a2,49
     66c:	c0068693          	addi	a3,a3,-1024 # 12c00 <__global_pointer+0x10044>
     670:	3c05a703          	lw	a4,960(a1) # 23c0 <VGA>
     674:	00f70733          	add	a4,a4,a5
     678:	00c70023          	sb	a2,0(a4)
     67c:	00178793          	addi	a5,a5,1
     680:	fed798e3          	bne	a5,a3,670 <green_screen+0x14>
     684:	00008067          	ret

00000688 <update_timer>:
     688:	00002737          	lui	a4,0x2
     68c:	3dc72783          	lw	a5,988(a4) # 23dc <two_seconds>
     690:	000026b7          	lui	a3,0x2
     694:	3ec6a683          	lw	a3,1004(a3) # 23ec <fast_ball>
     698:	ff010113          	addi	sp,sp,-16
     69c:	00178793          	addi	a5,a5,1
     6a0:	00112623          	sw	ra,12(sp)
     6a4:	00812423          	sw	s0,8(sp)
     6a8:	00912223          	sw	s1,4(sp)
     6ac:	3cf72e23          	sw	a5,988(a4)
     6b0:	02068c63          	beqz	a3,6e8 <update_timer+0x60>
     6b4:	00100693          	li	a3,1
     6b8:	02f6d863          	bge	a3,a5,6e8 <update_timer+0x60>
     6bc:	000026b7          	lui	a3,0x2
     6c0:	4086a783          	lw	a5,1032(a3) # 2408 <ball_dx>
     6c4:	3c072e23          	sw	zero,988(a4)
     6c8:	0af05a63          	blez	a5,77c <update_timer+0xf4>
     6cc:	00178793          	addi	a5,a5,1
     6d0:	40f6a423          	sw	a5,1032(a3)
     6d4:	00002737          	lui	a4,0x2
     6d8:	40472783          	lw	a5,1028(a4) # 2404 <ball_dy>
     6dc:	0af05863          	blez	a5,78c <update_timer+0x104>
     6e0:	00178793          	addi	a5,a5,1
     6e4:	40f72223          	sw	a5,1028(a4)
     6e8:	00002437          	lui	s0,0x2
     6ec:	3e842783          	lw	a5,1000(s0) # 23e8 <seconds>
     6f0:	00002737          	lui	a4,0x2
     6f4:	3e072023          	sw	zero,992(a4) # 23e0 <timeoutCount>
     6f8:	03a00713          	li	a4,58
     6fc:	06f75663          	bge	a4,a5,768 <update_timer+0xe0>
     700:	000024b7          	lui	s1,0x2
     704:	3e44a703          	lw	a4,996(s1) # 23e4 <minutes>
     708:	00000593          	li	a1,0
     70c:	00000793          	li	a5,0
     710:	00170713          	addi	a4,a4,1
     714:	3ee4a223          	sw	a4,996(s1)
     718:	00200513          	li	a0,2
     71c:	3ef42423          	sw	a5,1000(s0)
     720:	5b0000ef          	jal	cd0 <seven_segment_display>
     724:	3e842583          	lw	a1,1000(s0)
     728:	00a00413          	li	s0,10
     72c:	00300513          	li	a0,3
     730:	0285c5b3          	div	a1,a1,s0
     734:	59c000ef          	jal	cd0 <seven_segment_display>
     738:	3e44a583          	lw	a1,996(s1)
     73c:	00400513          	li	a0,4
     740:	0285e5b3          	rem	a1,a1,s0
     744:	58c000ef          	jal	cd0 <seven_segment_display>
     748:	3e44a583          	lw	a1,996(s1)
     74c:	00c12083          	lw	ra,12(sp)
     750:	00412483          	lw	s1,4(sp)
     754:	0285c5b3          	div	a1,a1,s0
     758:	00812403          	lw	s0,8(sp)
     75c:	00500513          	li	a0,5
     760:	01010113          	addi	sp,sp,16
     764:	56c0006f          	j	cd0 <seven_segment_display>
     768:	00178793          	addi	a5,a5,1
     76c:	00a00593          	li	a1,10
     770:	02b7e5b3          	rem	a1,a5,a1
     774:	000024b7          	lui	s1,0x2
     778:	fa1ff06f          	j	718 <update_timer+0x90>
     77c:	f4078ce3          	beqz	a5,6d4 <update_timer+0x4c>
     780:	fff78793          	addi	a5,a5,-1
     784:	40f6a423          	sw	a5,1032(a3)
     788:	f4dff06f          	j	6d4 <update_timer+0x4c>
     78c:	f4078ee3          	beqz	a5,6e8 <update_timer+0x60>
     790:	fff78793          	addi	a5,a5,-1
     794:	40f72223          	sw	a5,1028(a4)
     798:	f51ff06f          	j	6e8 <update_timer+0x60>

0000079c <main>:
     79c:	fc010113          	addi	sp,sp,-64
     7a0:	02812c23          	sw	s0,56(sp)
     7a4:	02912a23          	sw	s1,52(sp)
     7a8:	03212823          	sw	s2,48(sp)
     7ac:	03312623          	sw	s3,44(sp)
     7b0:	03412423          	sw	s4,40(sp)
     7b4:	03512223          	sw	s5,36(sp)
     7b8:	03612023          	sw	s6,32(sp)
     7bc:	01712e23          	sw	s7,28(sp)
     7c0:	01812c23          	sw	s8,24(sp)
     7c4:	01912a23          	sw	s9,20(sp)
     7c8:	01a12823          	sw	s10,16(sp)
     7cc:	01b12623          	sw	s11,12(sp)
     7d0:	02112e23          	sw	ra,60(sp)
     7d4:	04000937          	lui	s2,0x4000
     7d8:	00013db7          	lui	s11,0x13
     7dc:	5f4000ef          	jal	dd0 <initialize_game>
     7e0:	000029b7          	lui	s3,0x2
     7e4:	00002a37          	lui	s4,0x2
     7e8:	00002cb7          	lui	s9,0x2
     7ec:	00002bb7          	lui	s7,0x2
     7f0:	00002c37          	lui	s8,0x2
     7f4:	000024b7          	lui	s1,0x2
     7f8:	00002437          	lui	s0,0x2
     7fc:	00002ab7          	lui	s5,0x2
     800:	02090913          	addi	s2,s2,32 # 4000020 <_stack_end+0x3efdb60>
     804:	c00d8d93          	addi	s11,s11,-1024 # 12c00 <__global_pointer+0x10044>
     808:	0ef00b13          	li	s6,239
     80c:	fff00d13          	li	s10,-1
     810:	2c8010ef          	jal	1ad8 <get_btn>
     814:	3c051063          	bnez	a0,bd4 <__heap_size+0x3d4>
     818:	3f89a783          	lw	a5,1016(s3) # 23f8 <game_state>
     81c:	3a078063          	beqz	a5,bbc <__heap_size+0x3bc>
     820:	00092783          	lw	a5,0(s2)
     824:	0017f793          	andi	a5,a5,1
     828:	38078a63          	beqz	a5,bbc <__heap_size+0x3bc>
     82c:	3e0a2783          	lw	a5,992(s4) # 23e0 <timeoutCount>
     830:	00a00713          	li	a4,10
     834:	00178793          	addi	a5,a5,1
     838:	3efa2023          	sw	a5,992(s4)
     83c:	00092783          	lw	a5,0(s2)
     840:	ffe7f793          	andi	a5,a5,-2
     844:	00f92023          	sw	a5,0(s2)
     848:	3e0a2783          	lw	a5,992(s4)
     84c:	46e78e63          	beq	a5,a4,cc8 <__heap_size+0x4c8>
     850:	324010ef          	jal	1b74 <set_special_game_modes>
     854:	29c010ef          	jal	1af0 <set_paddles_velocity>
     858:	635000ef          	jal	168c <move_ball>
     85c:	00000793          	li	a5,0
     860:	3c0ca703          	lw	a4,960(s9) # 23c0 <VGA>
     864:	00f70733          	add	a4,a4,a5
     868:	00070023          	sb	zero,0(a4)
     86c:	00178793          	addi	a5,a5,1
     870:	ffb798e3          	bne	a5,s11,860 <__heap_size+0x60>
     874:	16c010ef          	jal	19e0 <move_paddles>
     878:	99dff0ef          	jal	214 <draw_ball>
     87c:	3c8ba783          	lw	a5,968(s7) # 23c8 <paddle_height>
     880:	00000513          	li	a0,0
     884:	28f05663          	blez	a5,b10 <__heap_size+0x310>
     888:	3d84a683          	lw	a3,984(s1) # 23d8 <player1_y>
     88c:	01f7d713          	srli	a4,a5,0x1f
     890:	00f70633          	add	a2,a4,a5
     894:	40165613          	srai	a2,a2,0x1
     898:	40c68633          	sub	a2,a3,a2
     89c:	00a60633          	add	a2,a2,a0
     8a0:	02cb6663          	bltu	s6,a2,8cc <__heap_size+0xcc>
     8a4:	00261793          	slli	a5,a2,0x2
     8a8:	3c0ca703          	lw	a4,960(s9)
     8ac:	00c787b3          	add	a5,a5,a2
     8b0:	00679793          	slli	a5,a5,0x6
     8b4:	00878793          	addi	a5,a5,8
     8b8:	00f707b3          	add	a5,a4,a5
     8bc:	01a78023          	sb	s10,0(a5)
     8c0:	3c8ba783          	lw	a5,968(s7)
     8c4:	3d84a683          	lw	a3,984(s1)
     8c8:	01f7d713          	srli	a4,a5,0x1f
     8cc:	00f70733          	add	a4,a4,a5
     8d0:	40175713          	srai	a4,a4,0x1
     8d4:	40e68733          	sub	a4,a3,a4
     8d8:	00a70733          	add	a4,a4,a0
     8dc:	0e074263          	bltz	a4,9c0 <__heap_size+0x1c0>
     8e0:	0eeb4063          	blt	s6,a4,9c0 <__heap_size+0x1c0>
     8e4:	00271793          	slli	a5,a4,0x2
     8e8:	3c0ca683          	lw	a3,960(s9)
     8ec:	00e787b3          	add	a5,a5,a4
     8f0:	00679793          	slli	a5,a5,0x6
     8f4:	00978793          	addi	a5,a5,9
     8f8:	00f687b3          	add	a5,a3,a5
     8fc:	01a78023          	sb	s10,0(a5)
     900:	3c8ba783          	lw	a5,968(s7)
     904:	3d84a703          	lw	a4,984(s1)
     908:	01f7d693          	srli	a3,a5,0x1f
     90c:	00f686b3          	add	a3,a3,a5
     910:	4016d693          	srai	a3,a3,0x1
     914:	40d70733          	sub	a4,a4,a3
     918:	00a70733          	add	a4,a4,a0
     91c:	0a074263          	bltz	a4,9c0 <__heap_size+0x1c0>
     920:	0aeb4063          	blt	s6,a4,9c0 <__heap_size+0x1c0>
     924:	00271793          	slli	a5,a4,0x2
     928:	3c0ca683          	lw	a3,960(s9)
     92c:	00e787b3          	add	a5,a5,a4
     930:	00679793          	slli	a5,a5,0x6
     934:	00a78793          	addi	a5,a5,10
     938:	00f687b3          	add	a5,a3,a5
     93c:	01a78023          	sb	s10,0(a5)
     940:	3c8ba783          	lw	a5,968(s7)
     944:	3d84a703          	lw	a4,984(s1)
     948:	01f7d693          	srli	a3,a5,0x1f
     94c:	00f686b3          	add	a3,a3,a5
     950:	4016d693          	srai	a3,a3,0x1
     954:	40d70733          	sub	a4,a4,a3
     958:	00a70733          	add	a4,a4,a0
     95c:	06074263          	bltz	a4,9c0 <__heap_size+0x1c0>
     960:	06eb4063          	blt	s6,a4,9c0 <__heap_size+0x1c0>
     964:	00271793          	slli	a5,a4,0x2
     968:	3c0ca683          	lw	a3,960(s9)
     96c:	00e787b3          	add	a5,a5,a4
     970:	00679793          	slli	a5,a5,0x6
     974:	00b78793          	addi	a5,a5,11
     978:	00f687b3          	add	a5,a3,a5
     97c:	01a78023          	sb	s10,0(a5)
     980:	3c8ba783          	lw	a5,968(s7)
     984:	3d84a703          	lw	a4,984(s1)
     988:	01f7d693          	srli	a3,a5,0x1f
     98c:	00f686b3          	add	a3,a3,a5
     990:	4016d693          	srai	a3,a3,0x1
     994:	40d70733          	sub	a4,a4,a3
     998:	00a70733          	add	a4,a4,a0
     99c:	02eb6263          	bltu	s6,a4,9c0 <__heap_size+0x1c0>
     9a0:	00271793          	slli	a5,a4,0x2
     9a4:	3c0ca683          	lw	a3,960(s9)
     9a8:	00e787b3          	add	a5,a5,a4
     9ac:	00679793          	slli	a5,a5,0x6
     9b0:	00c78793          	addi	a5,a5,12
     9b4:	00f687b3          	add	a5,a3,a5
     9b8:	01a78023          	sb	s10,0(a5)
     9bc:	3c8ba783          	lw	a5,968(s7)
     9c0:	00150513          	addi	a0,a0,1
     9c4:	ecf542e3          	blt	a0,a5,888 <__heap_size+0x88>
     9c8:	00000513          	li	a0,0
     9cc:	14f05263          	blez	a5,b10 <__heap_size+0x310>
     9d0:	3d442683          	lw	a3,980(s0) # 23d4 <player2_y>
     9d4:	01f7d713          	srli	a4,a5,0x1f
     9d8:	00f70633          	add	a2,a4,a5
     9dc:	40165613          	srai	a2,a2,0x1
     9e0:	40c68633          	sub	a2,a3,a2
     9e4:	00a60633          	add	a2,a2,a0
     9e8:	02cb6663          	bltu	s6,a2,a14 <__heap_size+0x214>
     9ec:	00261793          	slli	a5,a2,0x2
     9f0:	3c0ca703          	lw	a4,960(s9)
     9f4:	00c787b3          	add	a5,a5,a2
     9f8:	00679793          	slli	a5,a5,0x6
     9fc:	13b78793          	addi	a5,a5,315
     a00:	00f707b3          	add	a5,a4,a5
     a04:	01a78023          	sb	s10,0(a5)
     a08:	3c8ba783          	lw	a5,968(s7)
     a0c:	3d442683          	lw	a3,980(s0)
     a10:	01f7d713          	srli	a4,a5,0x1f
     a14:	00f70733          	add	a4,a4,a5
     a18:	40175713          	srai	a4,a4,0x1
     a1c:	40e68733          	sub	a4,a3,a4
     a20:	00a70733          	add	a4,a4,a0
     a24:	0e074263          	bltz	a4,b08 <__heap_size+0x308>
     a28:	0eeb4063          	blt	s6,a4,b08 <__heap_size+0x308>
     a2c:	00271793          	slli	a5,a4,0x2
     a30:	3c0ca683          	lw	a3,960(s9)
     a34:	00e787b3          	add	a5,a5,a4
     a38:	00679793          	slli	a5,a5,0x6
     a3c:	13c78793          	addi	a5,a5,316
     a40:	00f687b3          	add	a5,a3,a5
     a44:	01a78023          	sb	s10,0(a5)
     a48:	3c8ba783          	lw	a5,968(s7)
     a4c:	3d442703          	lw	a4,980(s0)
     a50:	01f7d693          	srli	a3,a5,0x1f
     a54:	00f686b3          	add	a3,a3,a5
     a58:	4016d693          	srai	a3,a3,0x1
     a5c:	40d70733          	sub	a4,a4,a3
     a60:	00a70733          	add	a4,a4,a0
     a64:	0a074263          	bltz	a4,b08 <__heap_size+0x308>
     a68:	0aeb4063          	blt	s6,a4,b08 <__heap_size+0x308>
     a6c:	00271793          	slli	a5,a4,0x2
     a70:	3c0ca683          	lw	a3,960(s9)
     a74:	00e787b3          	add	a5,a5,a4
     a78:	00679793          	slli	a5,a5,0x6
     a7c:	13d78793          	addi	a5,a5,317
     a80:	00f687b3          	add	a5,a3,a5
     a84:	01a78023          	sb	s10,0(a5)
     a88:	3c8ba783          	lw	a5,968(s7)
     a8c:	3d442703          	lw	a4,980(s0)
     a90:	01f7d693          	srli	a3,a5,0x1f
     a94:	00f686b3          	add	a3,a3,a5
     a98:	4016d693          	srai	a3,a3,0x1
     a9c:	40d70733          	sub	a4,a4,a3
     aa0:	00a70733          	add	a4,a4,a0
     aa4:	06074263          	bltz	a4,b08 <__heap_size+0x308>
     aa8:	06eb4063          	blt	s6,a4,b08 <__heap_size+0x308>
     aac:	00271793          	slli	a5,a4,0x2
     ab0:	3c0ca683          	lw	a3,960(s9)
     ab4:	00e787b3          	add	a5,a5,a4
     ab8:	00679793          	slli	a5,a5,0x6
     abc:	13e78793          	addi	a5,a5,318
     ac0:	00f687b3          	add	a5,a3,a5
     ac4:	01a78023          	sb	s10,0(a5)
     ac8:	3c8ba783          	lw	a5,968(s7)
     acc:	3d442703          	lw	a4,980(s0)
     ad0:	01f7d693          	srli	a3,a5,0x1f
     ad4:	00f686b3          	add	a3,a3,a5
     ad8:	4016d693          	srai	a3,a3,0x1
     adc:	40d70733          	sub	a4,a4,a3
     ae0:	00a70733          	add	a4,a4,a0
     ae4:	02eb6263          	bltu	s6,a4,b08 <__heap_size+0x308>
     ae8:	00271793          	slli	a5,a4,0x2
     aec:	3c0ca683          	lw	a3,960(s9)
     af0:	00e787b3          	add	a5,a5,a4
     af4:	00679793          	slli	a5,a5,0x6
     af8:	13f78793          	addi	a5,a5,319
     afc:	00f687b3          	add	a5,a3,a5
     b00:	01a78023          	sb	s10,0(a5)
     b04:	3c8ba783          	lw	a5,968(s7)
     b08:	00150513          	addi	a0,a0,1
     b0c:	ecf542e3          	blt	a0,a5,9d0 <__heap_size+0x1d0>
     b10:	400c2703          	lw	a4,1024(s8) # 2400 <player1_score>
     b14:	00400793          	li	a5,4
     b18:	0ee7c863          	blt	a5,a4,c08 <__heap_size+0x408>
     b1c:	000027b7          	lui	a5,0x2
     b20:	3fc7a703          	lw	a4,1020(a5) # 23fc <player2_score>
     b24:	00400793          	li	a5,4
     b28:	08e7da63          	bge	a5,a4,bbc <__heap_size+0x3bc>
     b2c:	3e09ac23          	sw	zero,1016(s3)
     b30:	00000793          	li	a5,0
     b34:	03100693          	li	a3,49
     b38:	3c0ca703          	lw	a4,960(s9)
     b3c:	00f70733          	add	a4,a4,a5
     b40:	00d70023          	sb	a3,0(a4)
     b44:	00178793          	addi	a5,a5,1
     b48:	ffb798e3          	bne	a5,s11,b38 <__heap_size+0x338>
     b4c:	00008337          	lui	t1,0x8
     b50:	d0030313          	addi	t1,t1,-768 # 7d00 <__global_pointer+0x5144>
     b54:	06400713          	li	a4,100
     b58:	14000613          	li	a2,320
     b5c:	08d00e13          	li	t3,141
     b60:	02330513          	addi	a0,t1,35
     b64:	03200793          	li	a5,50
     b68:	00170893          	addi	a7,a4,1
     b6c:	00e50533          	add	a0,a0,a4
     b70:	08f70263          	beq	a4,a5,bf4 <__heap_size+0x3f4>
     b74:	00178793          	addi	a5,a5,1
     b78:	fec79ce3          	bne	a5,a2,b70 <__heap_size+0x370>
     b7c:	00088713          	mv	a4,a7
     b80:	14030313          	addi	t1,t1,320
     b84:	fdc89ee3          	bne	a7,t3,b60 <__heap_size+0x360>
     b88:	0000b337          	lui	t1,0xb
     b8c:	f0030313          	addi	t1,t1,-256 # af00 <__global_pointer+0x8344>
     b90:	08c00713          	li	a4,140
     b94:	0f000513          	li	a0,240
     b98:	06300e13          	li	t3,99
     b9c:	01400793          	li	a5,20
     ba0:	11330893          	addi	a7,t1,275
     ba4:	02e78c63          	beq	a5,a4,bdc <__heap_size+0x3dc>
     ba8:	00178793          	addi	a5,a5,1
     bac:	fea79ce3          	bne	a5,a0,ba4 <__heap_size+0x3a4>
     bb0:	fff70713          	addi	a4,a4,-1
     bb4:	ec030313          	addi	t1,t1,-320
     bb8:	ffc712e3          	bne	a4,t3,b9c <__heap_size+0x39c>
     bbc:	3bcaa783          	lw	a5,956(s5) # 23bc <VGA_CTRL>
     bc0:	3c0ca703          	lw	a4,960(s9)
     bc4:	00e7a223          	sw	a4,4(a5)
     bc8:	0007a023          	sw	zero,0(a5)
     bcc:	70d000ef          	jal	1ad8 <get_btn>
     bd0:	c40504e3          	beqz	a0,818 <__heap_size+0x18>
     bd4:	1fc000ef          	jal	dd0 <initialize_game>
     bd8:	c41ff06f          	j	818 <__heap_size+0x18>
     bdc:	3c0ca683          	lw	a3,960(s9)
     be0:	40f88633          	sub	a2,a7,a5
     be4:	00178793          	addi	a5,a5,1
     be8:	00c686b3          	add	a3,a3,a2
     bec:	01a68023          	sb	s10,0(a3)
     bf0:	fb5ff06f          	j	ba4 <__heap_size+0x3a4>
     bf4:	3c0ca683          	lw	a3,960(s9)
     bf8:	00088793          	mv	a5,a7
     bfc:	00a686b3          	add	a3,a3,a0
     c00:	01a68023          	sb	s10,0(a3)
     c04:	f6dff06f          	j	b70 <__heap_size+0x370>
     c08:	3e09ac23          	sw	zero,1016(s3)
     c0c:	00000793          	li	a5,0
     c10:	03100693          	li	a3,49
     c14:	3c0ca703          	lw	a4,960(s9)
     c18:	00f70733          	add	a4,a4,a5
     c1c:	00d70023          	sb	a3,0(a4)
     c20:	00178793          	addi	a5,a5,1
     c24:	ffb798e3          	bne	a5,s11,c14 <__heap_size+0x414>
     c28:	00008337          	lui	t1,0x8
     c2c:	d0030313          	addi	t1,t1,-768 # 7d00 <__global_pointer+0x5144>
     c30:	06400713          	li	a4,100
     c34:	14000613          	li	a2,320
     c38:	08d00e13          	li	t3,141
     c3c:	02330513          	addi	a0,t1,35
     c40:	03200793          	li	a5,50
     c44:	00170893          	addi	a7,a4,1
     c48:	00e50533          	add	a0,a0,a4
     c4c:	06f70463          	beq	a4,a5,cb4 <__heap_size+0x4b4>
     c50:	00178793          	addi	a5,a5,1
     c54:	fec79ce3          	bne	a5,a2,c4c <__heap_size+0x44c>
     c58:	00088713          	mv	a4,a7
     c5c:	14030313          	addi	t1,t1,320
     c60:	fdc89ee3          	bne	a7,t3,c3c <__heap_size+0x43c>
     c64:	0000b8b7          	lui	a7,0xb
     c68:	f0088893          	addi	a7,a7,-256 # af00 <__global_pointer+0x8344>
     c6c:	08c00713          	li	a4,140
     c70:	0f000613          	li	a2,240
     c74:	06300313          	li	t1,99
     c78:	11388513          	addi	a0,a7,275
     c7c:	01400793          	li	a5,20
     c80:	40e50533          	sub	a0,a0,a4
     c84:	00f70e63          	beq	a4,a5,ca0 <__heap_size+0x4a0>
     c88:	00178793          	addi	a5,a5,1
     c8c:	fec79ce3          	bne	a5,a2,c84 <__heap_size+0x484>
     c90:	fff70713          	addi	a4,a4,-1
     c94:	ec088893          	addi	a7,a7,-320
     c98:	fe6710e3          	bne	a4,t1,c78 <__heap_size+0x478>
     c9c:	e81ff06f          	j	b1c <__heap_size+0x31c>
     ca0:	3c0ca683          	lw	a3,960(s9)
     ca4:	00170793          	addi	a5,a4,1
     ca8:	00a686b3          	add	a3,a3,a0
     cac:	01a68023          	sb	s10,0(a3)
     cb0:	fd5ff06f          	j	c84 <__heap_size+0x484>
     cb4:	3c0ca683          	lw	a3,960(s9)
     cb8:	00088793          	mv	a5,a7
     cbc:	00a686b3          	add	a3,a3,a0
     cc0:	01a68023          	sb	s10,0(a3)
     cc4:	f89ff06f          	j	c4c <__heap_size+0x44c>
     cc8:	9c1ff0ef          	jal	688 <update_timer>
     ccc:	b85ff06f          	j	850 <__heap_size+0x50>

00000cd0 <seven_segment_display>:
     cd0:	00500793          	li	a5,5
     cd4:	04a7e263          	bltu	a5,a0,d18 <seven_segment_display+0x48>
     cd8:	04000737          	lui	a4,0x4000
     cdc:	00451513          	slli	a0,a0,0x4
     ce0:	05070713          	addi	a4,a4,80 # 4000050 <_stack_end+0x3efdb90>
     ce4:	00e50533          	add	a0,a0,a4
     ce8:	02059a63          	bnez	a1,d1c <seven_segment_display+0x4c>
     cec:	04000793          	li	a5,64
     cf0:	00f52023          	sw	a5,0(a0)
     cf4:	00008067          	ret
     cf8:	00700793          	li	a5,7
     cfc:	08f58c63          	beq	a1,a5,d94 <seven_segment_display+0xc4>
     d00:	00800793          	li	a5,8
     d04:	08f58463          	beq	a1,a5,d8c <seven_segment_display+0xbc>
     d08:	00900793          	li	a5,9
     d0c:	00f59663          	bne	a1,a5,d18 <seven_segment_display+0x48>
     d10:	01000793          	li	a5,16
     d14:	00f52023          	sw	a5,0(a0)
     d18:	00008067          	ret
     d1c:	00100713          	li	a4,1
     d20:	00e58c63          	beq	a1,a4,d38 <seven_segment_display+0x68>
     d24:	00200713          	li	a4,2
     d28:	00e59e63          	bne	a1,a4,d44 <seven_segment_display+0x74>
     d2c:	02400793          	li	a5,36
     d30:	00f52023          	sw	a5,0(a0)
     d34:	00008067          	ret
     d38:	07900793          	li	a5,121
     d3c:	00f52023          	sw	a5,0(a0)
     d40:	00008067          	ret
     d44:	00300693          	li	a3,3
     d48:	00d59863          	bne	a1,a3,d58 <seven_segment_display+0x88>
     d4c:	03000793          	li	a5,48
     d50:	00f52023          	sw	a5,0(a0)
     d54:	00008067          	ret
     d58:	00400693          	li	a3,4
     d5c:	00d58c63          	beq	a1,a3,d74 <seven_segment_display+0xa4>
     d60:	02f58063          	beq	a1,a5,d80 <seven_segment_display+0xb0>
     d64:	00600793          	li	a5,6
     d68:	f8f598e3          	bne	a1,a5,cf8 <seven_segment_display+0x28>
     d6c:	00e52023          	sw	a4,0(a0)
     d70:	00008067          	ret
     d74:	01900793          	li	a5,25
     d78:	00f52023          	sw	a5,0(a0)
     d7c:	00008067          	ret
     d80:	01200793          	li	a5,18
     d84:	00f52023          	sw	a5,0(a0)
     d88:	00008067          	ret
     d8c:	00052023          	sw	zero,0(a0)
     d90:	00008067          	ret
     d94:	07800793          	li	a5,120
     d98:	00f52023          	sw	a5,0(a0)
     d9c:	00008067          	ret

00000da0 <initialize_game_time>:
     da0:	0000c6b7          	lui	a3,0xc
     da4:	040007b7          	lui	a5,0x4000
     da8:	6bf68693          	addi	a3,a3,1727 # c6bf <__global_pointer+0x9b03>
     dac:	02d7a423          	sw	a3,40(a5) # 4000028 <_stack_end+0x3efdb68>
     db0:	04000737          	lui	a4,0x4000
     db4:	02d00693          	li	a3,45
     db8:	040007b7          	lui	a5,0x4000
     dbc:	02d72623          	sw	a3,44(a4) # 400002c <_stack_end+0x3efdb6c>
     dc0:	0247a703          	lw	a4,36(a5) # 4000024 <_stack_end+0x3efdb64>
     dc4:	00776713          	ori	a4,a4,7
     dc8:	02e7a223          	sw	a4,36(a5)
     dcc:	00008067          	ret

00000dd0 <initialize_game>:
     dd0:	00002737          	lui	a4,0x2
     dd4:	40072623          	sw	zero,1036(a4) # 240c <player2_dy>
     dd8:	00002737          	lui	a4,0x2
     ddc:	40072823          	sw	zero,1040(a4) # 2410 <player1_dy>
     de0:	ffb00613          	li	a2,-5
     de4:	00002737          	lui	a4,0x2
     de8:	40c72423          	sw	a2,1032(a4) # 2408 <ball_dx>
     dec:	00002737          	lui	a4,0x2
     df0:	40072223          	sw	zero,1028(a4) # 2404 <ball_dy>
     df4:	07800793          	li	a5,120
     df8:	00002737          	lui	a4,0x2
     dfc:	3cf72a23          	sw	a5,980(a4) # 23d4 <player2_y>
     e00:	00002737          	lui	a4,0x2
     e04:	3cf72c23          	sw	a5,984(a4) # 23d8 <player1_y>
     e08:	0a000613          	li	a2,160
     e0c:	00002737          	lui	a4,0x2
     e10:	3cc72823          	sw	a2,976(a4) # 23d0 <ball_x>
     e14:	00002737          	lui	a4,0x2
     e18:	3cf72623          	sw	a5,972(a4) # 23cc <ball_y>
     e1c:	000027b7          	lui	a5,0x2
     e20:	3e07ae23          	sw	zero,1020(a5) # 23fc <player2_score>
     e24:	000027b7          	lui	a5,0x2
     e28:	4007a023          	sw	zero,1024(a5) # 2400 <player1_score>
     e2c:	040006b7          	lui	a3,0x4000
     e30:	04000793          	li	a5,64
     e34:	04f6a823          	sw	a5,80(a3) # 4000050 <_stack_end+0x3efdb90>
     e38:	04000737          	lui	a4,0x4000
     e3c:	06f72023          	sw	a5,96(a4) # 4000060 <_stack_end+0x3efdba0>
     e40:	00002637          	lui	a2,0x2
     e44:	3e062423          	sw	zero,1000(a2) # 23e8 <seconds>
     e48:	0000c5b7          	lui	a1,0xc
     e4c:	00002637          	lui	a2,0x2
     e50:	3e062223          	sw	zero,996(a2) # 23e4 <minutes>
     e54:	040007b7          	lui	a5,0x4000
     e58:	6bf58593          	addi	a1,a1,1727 # c6bf <__global_pointer+0x9b03>
     e5c:	02b7a423          	sw	a1,40(a5) # 4000028 <_stack_end+0x3efdb68>
     e60:	04000637          	lui	a2,0x4000
     e64:	02d00593          	li	a1,45
     e68:	040007b7          	lui	a5,0x4000
     e6c:	02b62623          	sw	a1,44(a2) # 400002c <_stack_end+0x3efdb6c>
     e70:	0247a603          	lw	a2,36(a5) # 4000024 <_stack_end+0x3efdb64>
     e74:	00100713          	li	a4,1
     e78:	00766613          	ori	a2,a2,7
     e7c:	02c7a223          	sw	a2,36(a5)
     e80:	000027b7          	lui	a5,0x2
     e84:	3ee7ac23          	sw	a4,1016(a5) # 23f8 <game_state>
     e88:	00008067          	ret

00000e8c <increment_score>:
     e8c:	00100793          	li	a5,1
     e90:	02f50a63          	beq	a0,a5,ec4 <increment_score+0x38>
     e94:	00200713          	li	a4,2
     e98:	00e50463          	beq	a0,a4,ea0 <increment_score+0x14>
     e9c:	00008067          	ret
     ea0:	000026b7          	lui	a3,0x2
     ea4:	3fc6a703          	lw	a4,1020(a3) # 23fc <player2_score>
     ea8:	00170713          	addi	a4,a4,1
     eac:	3ee6ae23          	sw	a4,1020(a3)
     eb0:	04071a63          	bnez	a4,f04 <increment_score+0x78>
     eb4:	040007b7          	lui	a5,0x4000
     eb8:	04000713          	li	a4,64
     ebc:	04e7a823          	sw	a4,80(a5) # 4000050 <_stack_end+0x3efdb90>
     ec0:	00008067          	ret
     ec4:	00002737          	lui	a4,0x2
     ec8:	40072783          	lw	a5,1024(a4) # 2400 <player1_score>
     ecc:	00178793          	addi	a5,a5,1
     ed0:	40f72023          	sw	a5,1024(a4)
     ed4:	00079a63          	bnez	a5,ee8 <increment_score+0x5c>
     ed8:	040007b7          	lui	a5,0x4000
     edc:	04000713          	li	a4,64
     ee0:	06e7a023          	sw	a4,96(a5) # 4000060 <_stack_end+0x3efdba0>
     ee4:	00008067          	ret
     ee8:	04a78e63          	beq	a5,a0,f44 <increment_score+0xb8>
     eec:	00200713          	li	a4,2
     ef0:	08e79a63          	bne	a5,a4,f84 <increment_score+0xf8>
     ef4:	040007b7          	lui	a5,0x4000
     ef8:	02400713          	li	a4,36
     efc:	06e7a023          	sw	a4,96(a5) # 4000060 <_stack_end+0x3efdba0>
     f00:	00008067          	ret
     f04:	02f70863          	beq	a4,a5,f34 <increment_score+0xa8>
     f08:	04a70663          	beq	a4,a0,f54 <increment_score+0xc8>
     f0c:	00300793          	li	a5,3
     f10:	04f70a63          	beq	a4,a5,f64 <increment_score+0xd8>
     f14:	00400793          	li	a5,4
     f18:	04f70e63          	beq	a4,a5,f74 <increment_score+0xe8>
     f1c:	00500793          	li	a5,5
     f20:	0cf71063          	bne	a4,a5,fe0 <increment_score+0x154>
     f24:	040007b7          	lui	a5,0x4000
     f28:	01200713          	li	a4,18
     f2c:	04e7a823          	sw	a4,80(a5) # 4000050 <_stack_end+0x3efdb90>
     f30:	00008067          	ret
     f34:	040007b7          	lui	a5,0x4000
     f38:	07900713          	li	a4,121
     f3c:	04e7a823          	sw	a4,80(a5) # 4000050 <_stack_end+0x3efdb90>
     f40:	00008067          	ret
     f44:	040007b7          	lui	a5,0x4000
     f48:	07900713          	li	a4,121
     f4c:	06e7a023          	sw	a4,96(a5) # 4000060 <_stack_end+0x3efdba0>
     f50:	00008067          	ret
     f54:	040007b7          	lui	a5,0x4000
     f58:	02400713          	li	a4,36
     f5c:	04e7a823          	sw	a4,80(a5) # 4000050 <_stack_end+0x3efdb90>
     f60:	00008067          	ret
     f64:	040007b7          	lui	a5,0x4000
     f68:	03000713          	li	a4,48
     f6c:	04e7a823          	sw	a4,80(a5) # 4000050 <_stack_end+0x3efdb90>
     f70:	00008067          	ret
     f74:	040007b7          	lui	a5,0x4000
     f78:	01900713          	li	a4,25
     f7c:	04e7a823          	sw	a4,80(a5) # 4000050 <_stack_end+0x3efdb90>
     f80:	00008067          	ret
     f84:	00300693          	li	a3,3
     f88:	00d79a63          	bne	a5,a3,f9c <increment_score+0x110>
     f8c:	040007b7          	lui	a5,0x4000
     f90:	03000713          	li	a4,48
     f94:	06e7a023          	sw	a4,96(a5) # 4000060 <_stack_end+0x3efdba0>
     f98:	00008067          	ret
     f9c:	00400693          	li	a3,4
     fa0:	00d78e63          	beq	a5,a3,fbc <increment_score+0x130>
     fa4:	00500693          	li	a3,5
     fa8:	02d79263          	bne	a5,a3,fcc <increment_score+0x140>
     fac:	040007b7          	lui	a5,0x4000
     fb0:	01200713          	li	a4,18
     fb4:	06e7a023          	sw	a4,96(a5) # 4000060 <_stack_end+0x3efdba0>
     fb8:	00008067          	ret
     fbc:	040007b7          	lui	a5,0x4000
     fc0:	01900713          	li	a4,25
     fc4:	06e7a023          	sw	a4,96(a5) # 4000060 <_stack_end+0x3efdba0>
     fc8:	00008067          	ret
     fcc:	00600693          	li	a3,6
     fd0:	06d79463          	bne	a5,a3,1038 <increment_score+0x1ac>
     fd4:	040007b7          	lui	a5,0x4000
     fd8:	06e7a023          	sw	a4,96(a5) # 4000060 <_stack_end+0x3efdba0>
     fdc:	00008067          	ret
     fe0:	00600793          	li	a5,6
     fe4:	00f70e63          	beq	a4,a5,1000 <increment_score+0x174>
     fe8:	00700793          	li	a5,7
     fec:	02f71063          	bne	a4,a5,100c <increment_score+0x180>
     ff0:	040007b7          	lui	a5,0x4000
     ff4:	07800713          	li	a4,120
     ff8:	04e7a823          	sw	a4,80(a5) # 4000050 <_stack_end+0x3efdb90>
     ffc:	00008067          	ret
    1000:	040007b7          	lui	a5,0x4000
    1004:	04a7a823          	sw	a0,80(a5) # 4000050 <_stack_end+0x3efdb90>
    1008:	00008067          	ret
    100c:	00800793          	li	a5,8
    1010:	00f71863          	bne	a4,a5,1020 <increment_score+0x194>
    1014:	040007b7          	lui	a5,0x4000
    1018:	0407a823          	sw	zero,80(a5) # 4000050 <_stack_end+0x3efdb90>
    101c:	00008067          	ret
    1020:	00900793          	li	a5,9
    1024:	e6f71ce3          	bne	a4,a5,e9c <increment_score+0x10>
    1028:	040007b7          	lui	a5,0x4000
    102c:	01000713          	li	a4,16
    1030:	04e7a823          	sw	a4,80(a5) # 4000050 <_stack_end+0x3efdb90>
    1034:	00008067          	ret
    1038:	00700713          	li	a4,7
    103c:	00e78c63          	beq	a5,a4,1054 <increment_score+0x1c8>
    1040:	00800713          	li	a4,8
    1044:	02e79063          	bne	a5,a4,1064 <increment_score+0x1d8>
    1048:	040007b7          	lui	a5,0x4000
    104c:	0607a023          	sw	zero,96(a5) # 4000060 <_stack_end+0x3efdba0>
    1050:	00008067          	ret
    1054:	040007b7          	lui	a5,0x4000
    1058:	07800713          	li	a4,120
    105c:	06e7a023          	sw	a4,96(a5) # 4000060 <_stack_end+0x3efdba0>
    1060:	00008067          	ret
    1064:	00900713          	li	a4,9
    1068:	e2e79ae3          	bne	a5,a4,e9c <increment_score+0x10>
    106c:	040007b7          	lui	a5,0x4000
    1070:	01000713          	li	a4,16
    1074:	06e7a023          	sw	a4,96(a5) # 4000060 <_stack_end+0x3efdba0>
    1078:	00008067          	ret

0000107c <rotate_ball_vector_counter_clockwise>:
    107c:	fe010113          	addi	sp,sp,-32
    1080:	00812c23          	sw	s0,24(sp)
    1084:	00912a23          	sw	s1,20(sp)
    1088:	01212823          	sw	s2,16(sp)
    108c:	000024b7          	lui	s1,0x2
    1090:	00002937          	lui	s2,0x2
    1094:	00050793          	mv	a5,a0
    1098:	00112e23          	sw	ra,28(sp)
    109c:	03c00713          	li	a4,60
    10a0:	4084a503          	lw	a0,1032(s1) # 2408 <ball_dx>
    10a4:	40492403          	lw	s0,1028(s2) # 2404 <ball_dy>
    10a8:	18e78063          	beq	a5,a4,1228 <rotate_ball_vector_counter_clockwise+0x1ac>
    10ac:	0af74e63          	blt	a4,a5,1168 <rotate_ball_vector_counter_clockwise+0xec>
    10b0:	01312623          	sw	s3,12(sp)
    10b4:	01412423          	sw	s4,8(sp)
    10b8:	01e00713          	li	a4,30
    10bc:	0ee78a63          	beq	a5,a4,11b0 <rotate_ball_vector_counter_clockwise+0x134>
    10c0:	02d00713          	li	a4,45
    10c4:	1ee78063          	beq	a5,a4,12a4 <rotate_ball_vector_counter_clockwise+0x228>
    10c8:	00f00713          	li	a4,15
    10cc:	0ce79863          	bne	a5,a4,119c <rotate_ball_vector_counter_clockwise+0x120>
    10d0:	01512223          	sw	s5,4(sp)
    10d4:	01612023          	sw	s6,0(sp)
    10d8:	108010ef          	jal	21e0 <__floatsisf>
    10dc:	00050a13          	mv	s4,a0
    10e0:	00040513          	mv	a0,s0
    10e4:	0fc010ef          	jal	21e0 <__floatsisf>
    10e8:	00002ab7          	lui	s5,0x2
    10ec:	414aa583          	lw	a1,1044(s5) # 2414 <player1_dy+0x4>
    10f0:	00050993          	mv	s3,a0
    10f4:	000a0513          	mv	a0,s4
    10f8:	140010ef          	jal	2238 <__mulsf3>
    10fc:	00002b37          	lui	s6,0x2
    1100:	418b2583          	lw	a1,1048(s6) # 2418 <player1_dy+0x8>
    1104:	00050413          	mv	s0,a0
    1108:	00098513          	mv	a0,s3
    110c:	12c010ef          	jal	2238 <__mulsf3>
    1110:	00050593          	mv	a1,a0
    1114:	00040513          	mv	a0,s0
    1118:	6ad000ef          	jal	1fc4 <__subsf3>
    111c:	074010ef          	jal	2190 <__fixsfsi>
    1120:	418b2583          	lw	a1,1048(s6)
    1124:	00050413          	mv	s0,a0
    1128:	000a0513          	mv	a0,s4
    112c:	10c010ef          	jal	2238 <__mulsf3>
    1130:	414aa583          	lw	a1,1044(s5)
    1134:	00050793          	mv	a5,a0
    1138:	00098513          	mv	a0,s3
    113c:	00078993          	mv	s3,a5
    1140:	0f8010ef          	jal	2238 <__mulsf3>
    1144:	00050593          	mv	a1,a0
    1148:	00098513          	mv	a0,s3
    114c:	681000ef          	jal	1fcc <__addsf3>
    1150:	040010ef          	jal	2190 <__fixsfsi>
    1154:	00c12983          	lw	s3,12(sp)
    1158:	00812a03          	lw	s4,8(sp)
    115c:	00412a83          	lw	s5,4(sp)
    1160:	00012b03          	lw	s6,0(sp)
    1164:	0180006f          	j	117c <rotate_ball_vector_counter_clockwise+0x100>
    1168:	04b00713          	li	a4,75
    116c:	18e78863          	beq	a5,a4,12fc <rotate_ball_vector_counter_clockwise+0x280>
    1170:	05a00713          	li	a4,90
    1174:	0ae79463          	bne	a5,a4,121c <rotate_ball_vector_counter_clockwise+0x1a0>
    1178:	40800433          	neg	s0,s0
    117c:	4084a423          	sw	s0,1032(s1)
    1180:	01c12083          	lw	ra,28(sp)
    1184:	01812403          	lw	s0,24(sp)
    1188:	40a92223          	sw	a0,1028(s2)
    118c:	01412483          	lw	s1,20(sp)
    1190:	01012903          	lw	s2,16(sp)
    1194:	02010113          	addi	sp,sp,32
    1198:	00008067          	ret
    119c:	01600713          	li	a4,22
    11a0:	f2f758e3          	bge	a4,a5,10d0 <rotate_ball_vector_counter_clockwise+0x54>
    11a4:	fe978713          	addi	a4,a5,-23
    11a8:	00e00693          	li	a3,14
    11ac:	0ee6e863          	bltu	a3,a4,129c <rotate_ball_vector_counter_clockwise+0x220>
    11b0:	01512223          	sw	s5,4(sp)
    11b4:	01612023          	sw	s6,0(sp)
    11b8:	028010ef          	jal	21e0 <__floatsisf>
    11bc:	00050a13          	mv	s4,a0
    11c0:	00040513          	mv	a0,s0
    11c4:	01c010ef          	jal	21e0 <__floatsisf>
    11c8:	00002ab7          	lui	s5,0x2
    11cc:	41caa583          	lw	a1,1052(s5) # 241c <player1_dy+0xc>
    11d0:	00050993          	mv	s3,a0
    11d4:	000a0513          	mv	a0,s4
    11d8:	060010ef          	jal	2238 <__mulsf3>
    11dc:	00002b37          	lui	s6,0x2
    11e0:	420b2583          	lw	a1,1056(s6) # 2420 <player1_dy+0x10>
    11e4:	00050413          	mv	s0,a0
    11e8:	00098513          	mv	a0,s3
    11ec:	04c010ef          	jal	2238 <__mulsf3>
    11f0:	00050593          	mv	a1,a0
    11f4:	00040513          	mv	a0,s0
    11f8:	5cd000ef          	jal	1fc4 <__subsf3>
    11fc:	795000ef          	jal	2190 <__fixsfsi>
    1200:	420b2583          	lw	a1,1056(s6)
    1204:	00050413          	mv	s0,a0
    1208:	000a0513          	mv	a0,s4
    120c:	02c010ef          	jal	2238 <__mulsf3>
    1210:	41caa583          	lw	a1,1052(s5)
    1214:	00050793          	mv	a5,a0
    1218:	f21ff06f          	j	1138 <rotate_ball_vector_counter_clockwise+0xbc>
    121c:	fcb78713          	addi	a4,a5,-53
    1220:	00e00693          	li	a3,14
    1224:	14e6e663          	bltu	a3,a4,1370 <rotate_ball_vector_counter_clockwise+0x2f4>
    1228:	01312623          	sw	s3,12(sp)
    122c:	01412423          	sw	s4,8(sp)
    1230:	01512223          	sw	s5,4(sp)
    1234:	01612023          	sw	s6,0(sp)
    1238:	7a9000ef          	jal	21e0 <__floatsisf>
    123c:	00050a13          	mv	s4,a0
    1240:	00040513          	mv	a0,s0
    1244:	79d000ef          	jal	21e0 <__floatsisf>
    1248:	00002ab7          	lui	s5,0x2
    124c:	428aa583          	lw	a1,1064(s5) # 2428 <player1_dy+0x18>
    1250:	00050993          	mv	s3,a0
    1254:	000a0513          	mv	a0,s4
    1258:	7e1000ef          	jal	2238 <__mulsf3>
    125c:	00002b37          	lui	s6,0x2
    1260:	42cb2583          	lw	a1,1068(s6) # 242c <player1_dy+0x1c>
    1264:	00050413          	mv	s0,a0
    1268:	00098513          	mv	a0,s3
    126c:	7cd000ef          	jal	2238 <__mulsf3>
    1270:	00050593          	mv	a1,a0
    1274:	00040513          	mv	a0,s0
    1278:	54d000ef          	jal	1fc4 <__subsf3>
    127c:	715000ef          	jal	2190 <__fixsfsi>
    1280:	42cb2583          	lw	a1,1068(s6)
    1284:	00050413          	mv	s0,a0
    1288:	000a0513          	mv	a0,s4
    128c:	7ad000ef          	jal	2238 <__mulsf3>
    1290:	428aa583          	lw	a1,1064(s5)
    1294:	00050793          	mv	a5,a0
    1298:	ea1ff06f          	j	1138 <rotate_ball_vector_counter_clockwise+0xbc>
    129c:	fda78793          	addi	a5,a5,-38
    12a0:	f8f6e8e3          	bltu	a3,a5,1230 <rotate_ball_vector_counter_clockwise+0x1b4>
    12a4:	00002a37          	lui	s4,0x2
    12a8:	739000ef          	jal	21e0 <__floatsisf>
    12ac:	424a2583          	lw	a1,1060(s4) # 2424 <player1_dy+0x14>
    12b0:	789000ef          	jal	2238 <__mulsf3>
    12b4:	00050993          	mv	s3,a0
    12b8:	00040513          	mv	a0,s0
    12bc:	725000ef          	jal	21e0 <__floatsisf>
    12c0:	424a2583          	lw	a1,1060(s4)
    12c4:	775000ef          	jal	2238 <__mulsf3>
    12c8:	00050593          	mv	a1,a0
    12cc:	00050a13          	mv	s4,a0
    12d0:	00098513          	mv	a0,s3
    12d4:	4f1000ef          	jal	1fc4 <__subsf3>
    12d8:	6b9000ef          	jal	2190 <__fixsfsi>
    12dc:	000a0593          	mv	a1,s4
    12e0:	00050413          	mv	s0,a0
    12e4:	00098513          	mv	a0,s3
    12e8:	4e5000ef          	jal	1fcc <__addsf3>
    12ec:	6a5000ef          	jal	2190 <__fixsfsi>
    12f0:	00c12983          	lw	s3,12(sp)
    12f4:	00812a03          	lw	s4,8(sp)
    12f8:	e85ff06f          	j	117c <rotate_ball_vector_counter_clockwise+0x100>
    12fc:	01312623          	sw	s3,12(sp)
    1300:	01412423          	sw	s4,8(sp)
    1304:	01512223          	sw	s5,4(sp)
    1308:	01612023          	sw	s6,0(sp)
    130c:	6d5000ef          	jal	21e0 <__floatsisf>
    1310:	00050a13          	mv	s4,a0
    1314:	00040513          	mv	a0,s0
    1318:	6c9000ef          	jal	21e0 <__floatsisf>
    131c:	00002ab7          	lui	s5,0x2
    1320:	430aa583          	lw	a1,1072(s5) # 2430 <player1_dy+0x20>
    1324:	00050993          	mv	s3,a0
    1328:	000a0513          	mv	a0,s4
    132c:	70d000ef          	jal	2238 <__mulsf3>
    1330:	00002b37          	lui	s6,0x2
    1334:	434b2583          	lw	a1,1076(s6) # 2434 <player1_dy+0x24>
    1338:	00050413          	mv	s0,a0
    133c:	00098513          	mv	a0,s3
    1340:	6f9000ef          	jal	2238 <__mulsf3>
    1344:	00050593          	mv	a1,a0
    1348:	00040513          	mv	a0,s0
    134c:	479000ef          	jal	1fc4 <__subsf3>
    1350:	641000ef          	jal	2190 <__fixsfsi>
    1354:	434b2583          	lw	a1,1076(s6)
    1358:	00050413          	mv	s0,a0
    135c:	000a0513          	mv	a0,s4
    1360:	6d9000ef          	jal	2238 <__mulsf3>
    1364:	430aa583          	lw	a1,1072(s5)
    1368:	00050793          	mv	a5,a0
    136c:	dcdff06f          	j	1138 <rotate_ball_vector_counter_clockwise+0xbc>
    1370:	fbc78713          	addi	a4,a5,-68
    1374:	f8e6f4e3          	bgeu	a3,a4,12fc <rotate_ball_vector_counter_clockwise+0x280>
    1378:	05200713          	li	a4,82
    137c:	def74ee3          	blt	a4,a5,1178 <rotate_ball_vector_counter_clockwise+0xfc>
    1380:	01312623          	sw	s3,12(sp)
    1384:	01412423          	sw	s4,8(sp)
    1388:	d49ff06f          	j	10d0 <rotate_ball_vector_counter_clockwise+0x54>

0000138c <rotate_ball_vector_clockwise>:
    138c:	fe010113          	addi	sp,sp,-32
    1390:	00812c23          	sw	s0,24(sp)
    1394:	00912a23          	sw	s1,20(sp)
    1398:	01212823          	sw	s2,16(sp)
    139c:	000024b7          	lui	s1,0x2
    13a0:	00002937          	lui	s2,0x2
    13a4:	00050793          	mv	a5,a0
    13a8:	00112e23          	sw	ra,28(sp)
    13ac:	03c00713          	li	a4,60
    13b0:	4084a503          	lw	a0,1032(s1) # 2408 <ball_dx>
    13b4:	40492403          	lw	s0,1028(s2) # 2404 <ball_dy>
    13b8:	26e78063          	beq	a5,a4,1618 <rotate_ball_vector_clockwise+0x28c>
    13bc:	0af74e63          	blt	a4,a5,1478 <rotate_ball_vector_clockwise+0xec>
    13c0:	01312623          	sw	s3,12(sp)
    13c4:	01412423          	sw	s4,8(sp)
    13c8:	01e00713          	li	a4,30
    13cc:	0ee78c63          	beq	a5,a4,14c4 <rotate_ball_vector_clockwise+0x138>
    13d0:	02d00713          	li	a4,45
    13d4:	16e78263          	beq	a5,a4,1538 <rotate_ball_vector_clockwise+0x1ac>
    13d8:	00f00713          	li	a4,15
    13dc:	0ce79a63          	bne	a5,a4,14b0 <rotate_ball_vector_clockwise+0x124>
    13e0:	01512223          	sw	s5,4(sp)
    13e4:	01612023          	sw	s6,0(sp)
    13e8:	5f9000ef          	jal	21e0 <__floatsisf>
    13ec:	00050a13          	mv	s4,a0
    13f0:	00040513          	mv	a0,s0
    13f4:	5ed000ef          	jal	21e0 <__floatsisf>
    13f8:	00002ab7          	lui	s5,0x2
    13fc:	414aa583          	lw	a1,1044(s5) # 2414 <player1_dy+0x4>
    1400:	00050993          	mv	s3,a0
    1404:	000a0513          	mv	a0,s4
    1408:	631000ef          	jal	2238 <__mulsf3>
    140c:	00002b37          	lui	s6,0x2
    1410:	418b2583          	lw	a1,1048(s6) # 2418 <player1_dy+0x8>
    1414:	00050413          	mv	s0,a0
    1418:	00098513          	mv	a0,s3
    141c:	61d000ef          	jal	2238 <__mulsf3>
    1420:	00050593          	mv	a1,a0
    1424:	00040513          	mv	a0,s0
    1428:	39d000ef          	jal	1fc4 <__subsf3>
    142c:	565000ef          	jal	2190 <__fixsfsi>
    1430:	418b2583          	lw	a1,1048(s6)
    1434:	00050413          	mv	s0,a0
    1438:	000a0513          	mv	a0,s4
    143c:	5fd000ef          	jal	2238 <__mulsf3>
    1440:	414aa583          	lw	a1,1044(s5)
    1444:	00050793          	mv	a5,a0
    1448:	00098513          	mv	a0,s3
    144c:	00078993          	mv	s3,a5
    1450:	5e9000ef          	jal	2238 <__mulsf3>
    1454:	00050593          	mv	a1,a0
    1458:	00098513          	mv	a0,s3
    145c:	371000ef          	jal	1fcc <__addsf3>
    1460:	531000ef          	jal	2190 <__fixsfsi>
    1464:	00c12983          	lw	s3,12(sp)
    1468:	00812a03          	lw	s4,8(sp)
    146c:	00412a83          	lw	s5,4(sp)
    1470:	00012b03          	lw	s6,0(sp)
    1474:	0180006f          	j	148c <rotate_ball_vector_clockwise+0x100>
    1478:	04b00713          	li	a4,75
    147c:	12e78463          	beq	a5,a4,15a4 <rotate_ball_vector_clockwise+0x218>
    1480:	05a00713          	li	a4,90
    1484:	10e79663          	bne	a5,a4,1590 <rotate_ball_vector_clockwise+0x204>
    1488:	40800433          	neg	s0,s0
    148c:	4084a423          	sw	s0,1032(s1)
    1490:	01c12083          	lw	ra,28(sp)
    1494:	01812403          	lw	s0,24(sp)
    1498:	40a00533          	neg	a0,a0
    149c:	40a92223          	sw	a0,1028(s2)
    14a0:	01412483          	lw	s1,20(sp)
    14a4:	01012903          	lw	s2,16(sp)
    14a8:	02010113          	addi	sp,sp,32
    14ac:	00008067          	ret
    14b0:	01600713          	li	a4,22
    14b4:	f2f756e3          	bge	a4,a5,13e0 <rotate_ball_vector_clockwise+0x54>
    14b8:	fe978713          	addi	a4,a5,-23
    14bc:	00e00693          	li	a3,14
    14c0:	06e6e863          	bltu	a3,a4,1530 <rotate_ball_vector_clockwise+0x1a4>
    14c4:	01512223          	sw	s5,4(sp)
    14c8:	01612023          	sw	s6,0(sp)
    14cc:	515000ef          	jal	21e0 <__floatsisf>
    14d0:	00050a13          	mv	s4,a0
    14d4:	00040513          	mv	a0,s0
    14d8:	509000ef          	jal	21e0 <__floatsisf>
    14dc:	00002ab7          	lui	s5,0x2
    14e0:	41caa583          	lw	a1,1052(s5) # 241c <player1_dy+0xc>
    14e4:	00050993          	mv	s3,a0
    14e8:	000a0513          	mv	a0,s4
    14ec:	54d000ef          	jal	2238 <__mulsf3>
    14f0:	00002b37          	lui	s6,0x2
    14f4:	420b2583          	lw	a1,1056(s6) # 2420 <player1_dy+0x10>
    14f8:	00050413          	mv	s0,a0
    14fc:	00098513          	mv	a0,s3
    1500:	539000ef          	jal	2238 <__mulsf3>
    1504:	00050593          	mv	a1,a0
    1508:	00040513          	mv	a0,s0
    150c:	2b9000ef          	jal	1fc4 <__subsf3>
    1510:	481000ef          	jal	2190 <__fixsfsi>
    1514:	420b2583          	lw	a1,1056(s6)
    1518:	00050413          	mv	s0,a0
    151c:	000a0513          	mv	a0,s4
    1520:	519000ef          	jal	2238 <__mulsf3>
    1524:	41caa583          	lw	a1,1052(s5)
    1528:	00050793          	mv	a5,a0
    152c:	f1dff06f          	j	1448 <rotate_ball_vector_clockwise+0xbc>
    1530:	fda78793          	addi	a5,a5,-38
    1534:	0ef6e663          	bltu	a3,a5,1620 <rotate_ball_vector_clockwise+0x294>
    1538:	00002a37          	lui	s4,0x2
    153c:	4a5000ef          	jal	21e0 <__floatsisf>
    1540:	424a2583          	lw	a1,1060(s4) # 2424 <player1_dy+0x14>
    1544:	4f5000ef          	jal	2238 <__mulsf3>
    1548:	00050993          	mv	s3,a0
    154c:	00040513          	mv	a0,s0
    1550:	491000ef          	jal	21e0 <__floatsisf>
    1554:	424a2583          	lw	a1,1060(s4)
    1558:	4e1000ef          	jal	2238 <__mulsf3>
    155c:	00050593          	mv	a1,a0
    1560:	00050a13          	mv	s4,a0
    1564:	00098513          	mv	a0,s3
    1568:	25d000ef          	jal	1fc4 <__subsf3>
    156c:	425000ef          	jal	2190 <__fixsfsi>
    1570:	000a0593          	mv	a1,s4
    1574:	00050413          	mv	s0,a0
    1578:	00098513          	mv	a0,s3
    157c:	251000ef          	jal	1fcc <__addsf3>
    1580:	411000ef          	jal	2190 <__fixsfsi>
    1584:	00c12983          	lw	s3,12(sp)
    1588:	00812a03          	lw	s4,8(sp)
    158c:	f01ff06f          	j	148c <rotate_ball_vector_clockwise+0x100>
    1590:	fcb78713          	addi	a4,a5,-53
    1594:	00e00693          	li	a3,14
    1598:	08e6f063          	bgeu	a3,a4,1618 <rotate_ball_vector_clockwise+0x28c>
    159c:	fbc78793          	addi	a5,a5,-68
    15a0:	eef6e4e3          	bltu	a3,a5,1488 <rotate_ball_vector_clockwise+0xfc>
    15a4:	01312623          	sw	s3,12(sp)
    15a8:	01412423          	sw	s4,8(sp)
    15ac:	01512223          	sw	s5,4(sp)
    15b0:	01612023          	sw	s6,0(sp)
    15b4:	42d000ef          	jal	21e0 <__floatsisf>
    15b8:	00050a13          	mv	s4,a0
    15bc:	00040513          	mv	a0,s0
    15c0:	421000ef          	jal	21e0 <__floatsisf>
    15c4:	00002ab7          	lui	s5,0x2
    15c8:	430aa583          	lw	a1,1072(s5) # 2430 <player1_dy+0x20>
    15cc:	00050993          	mv	s3,a0
    15d0:	000a0513          	mv	a0,s4
    15d4:	465000ef          	jal	2238 <__mulsf3>
    15d8:	00002b37          	lui	s6,0x2
    15dc:	434b2583          	lw	a1,1076(s6) # 2434 <player1_dy+0x24>
    15e0:	00050413          	mv	s0,a0
    15e4:	00098513          	mv	a0,s3
    15e8:	451000ef          	jal	2238 <__mulsf3>
    15ec:	00050593          	mv	a1,a0
    15f0:	00040513          	mv	a0,s0
    15f4:	1d1000ef          	jal	1fc4 <__subsf3>
    15f8:	399000ef          	jal	2190 <__fixsfsi>
    15fc:	434b2583          	lw	a1,1076(s6)
    1600:	00050413          	mv	s0,a0
    1604:	000a0513          	mv	a0,s4
    1608:	431000ef          	jal	2238 <__mulsf3>
    160c:	430aa583          	lw	a1,1072(s5)
    1610:	00050793          	mv	a5,a0
    1614:	e35ff06f          	j	1448 <rotate_ball_vector_clockwise+0xbc>
    1618:	01312623          	sw	s3,12(sp)
    161c:	01412423          	sw	s4,8(sp)
    1620:	01512223          	sw	s5,4(sp)
    1624:	01612023          	sw	s6,0(sp)
    1628:	3b9000ef          	jal	21e0 <__floatsisf>
    162c:	00050a13          	mv	s4,a0
    1630:	00040513          	mv	a0,s0
    1634:	3ad000ef          	jal	21e0 <__floatsisf>
    1638:	00002ab7          	lui	s5,0x2
    163c:	428aa583          	lw	a1,1064(s5) # 2428 <player1_dy+0x18>
    1640:	00050993          	mv	s3,a0
    1644:	000a0513          	mv	a0,s4
    1648:	3f1000ef          	jal	2238 <__mulsf3>
    164c:	00002b37          	lui	s6,0x2
    1650:	42cb2583          	lw	a1,1068(s6) # 242c <player1_dy+0x1c>
    1654:	00050413          	mv	s0,a0
    1658:	00098513          	mv	a0,s3
    165c:	3dd000ef          	jal	2238 <__mulsf3>
    1660:	00050593          	mv	a1,a0
    1664:	00040513          	mv	a0,s0
    1668:	15d000ef          	jal	1fc4 <__subsf3>
    166c:	325000ef          	jal	2190 <__fixsfsi>
    1670:	42cb2583          	lw	a1,1068(s6)
    1674:	00050413          	mv	s0,a0
    1678:	000a0513          	mv	a0,s4
    167c:	3bd000ef          	jal	2238 <__mulsf3>
    1680:	428aa583          	lw	a1,1064(s5)
    1684:	00050793          	mv	a5,a0
    1688:	dc1ff06f          	j	1448 <rotate_ball_vector_clockwise+0xbc>

0000168c <move_ball>:
    168c:	ff010113          	addi	sp,sp,-16
    1690:	00002737          	lui	a4,0x2
    1694:	00812423          	sw	s0,8(sp)
    1698:	000028b7          	lui	a7,0x2
    169c:	00002437          	lui	s0,0x2
    16a0:	00002837          	lui	a6,0x2
    16a4:	3d042583          	lw	a1,976(s0) # 23d0 <ball_x>
    16a8:	3cc72783          	lw	a5,972(a4) # 23cc <ball_y>
    16ac:	4088a303          	lw	t1,1032(a7) # 2408 <ball_dx>
    16b0:	40482503          	lw	a0,1028(a6) # 2404 <ball_dy>
    16b4:	00112623          	sw	ra,12(sp)
    16b8:	00b305b3          	add	a1,t1,a1
    16bc:	00f507b3          	add	a5,a0,a5
    16c0:	0ee00693          	li	a3,238
    16c4:	3cb42823          	sw	a1,976(s0)
    16c8:	3cf72623          	sw	a5,972(a4)
    16cc:	fff78613          	addi	a2,a5,-1
    16d0:	00c6f663          	bgeu	a3,a2,16dc <move_ball+0x50>
    16d4:	40a00533          	neg	a0,a0
    16d8:	40a82223          	sw	a0,1028(a6)
    16dc:	00d00693          	li	a3,13
    16e0:	06b6cc63          	blt	a3,a1,1758 <move_ball+0xcc>
    16e4:	000026b7          	lui	a3,0x2
    16e8:	3c86ae03          	lw	t3,968(a3) # 23c8 <paddle_height>
    16ec:	000026b7          	lui	a3,0x2
    16f0:	3d86a603          	lw	a2,984(a3) # 23d8 <player1_y>
    16f4:	01fe5693          	srli	a3,t3,0x1f
    16f8:	01c686b3          	add	a3,a3,t3
    16fc:	4016d693          	srai	a3,a3,0x1
    1700:	00c68e33          	add	t3,a3,a2
    1704:	0efe5c63          	bge	t3,a5,17fc <move_ball+0x170>
    1708:	04b04063          	bgtz	a1,1748 <move_ball+0xbc>
    170c:	000026b7          	lui	a3,0x2
    1710:	3fc6a783          	lw	a5,1020(a3) # 23fc <player2_score>
    1714:	00178793          	addi	a5,a5,1
    1718:	3ef6ae23          	sw	a5,1020(a3)
    171c:	10079663          	bnez	a5,1828 <move_ball+0x19c>
    1720:	040007b7          	lui	a5,0x4000
    1724:	04000693          	li	a3,64
    1728:	04d7a823          	sw	a3,80(a5) # 4000050 <_stack_end+0x3efdb90>
    172c:	ffb00793          	li	a5,-5
    1730:	40f8a423          	sw	a5,1032(a7)
    1734:	0a000793          	li	a5,160
    1738:	3cf42823          	sw	a5,976(s0)
    173c:	07800793          	li	a5,120
    1740:	40082223          	sw	zero,1028(a6)
    1744:	3cf72623          	sw	a5,972(a4)
    1748:	00c12083          	lw	ra,12(sp)
    174c:	00812403          	lw	s0,8(sp)
    1750:	01010113          	addi	sp,sp,16
    1754:	00008067          	ret
    1758:	13200713          	li	a4,306
    175c:	feb756e3          	bge	a4,a1,1748 <move_ball+0xbc>
    1760:	00002737          	lui	a4,0x2
    1764:	3c872603          	lw	a2,968(a4) # 23c8 <paddle_height>
    1768:	00002737          	lui	a4,0x2
    176c:	3d472683          	lw	a3,980(a4) # 23d4 <player2_y>
    1770:	01f65713          	srli	a4,a2,0x1f
    1774:	00c70733          	add	a4,a4,a2
    1778:	40175713          	srai	a4,a4,0x1
    177c:	00d70633          	add	a2,a4,a3
    1780:	04f65863          	bge	a2,a5,17d0 <move_ball+0x144>
    1784:	13f00793          	li	a5,319
    1788:	fcb7d0e3          	bge	a5,a1,1748 <move_ball+0xbc>
    178c:	00002737          	lui	a4,0x2
    1790:	40072783          	lw	a5,1024(a4) # 2400 <player1_score>
    1794:	00178793          	addi	a5,a5,1
    1798:	40f72023          	sw	a5,1024(a4)
    179c:	0a079663          	bnez	a5,1848 <move_ball+0x1bc>
    17a0:	040007b7          	lui	a5,0x4000
    17a4:	04000713          	li	a4,64
    17a8:	06e7a023          	sw	a4,96(a5) # 4000060 <_stack_end+0x3efdba0>
    17ac:	ffb00793          	li	a5,-5
    17b0:	40f8a423          	sw	a5,1032(a7)
    17b4:	0a000793          	li	a5,160
    17b8:	00c12083          	lw	ra,12(sp)
    17bc:	3cf42823          	sw	a5,976(s0)
    17c0:	00812403          	lw	s0,8(sp)
    17c4:	40082223          	sw	zero,1028(a6)
    17c8:	01010113          	addi	sp,sp,16
    17cc:	00008067          	ret
    17d0:	40e686b3          	sub	a3,a3,a4
    17d4:	fad7c8e3          	blt	a5,a3,1784 <move_ball+0xf8>
    17d8:	406007b3          	neg	a5,t1
    17dc:	40f8a423          	sw	a5,1032(a7)
    17e0:	0c050063          	beqz	a0,18a0 <move_ball+0x214>
    17e4:	13200793          	li	a5,306
    17e8:	00c12083          	lw	ra,12(sp)
    17ec:	3cf42823          	sw	a5,976(s0)
    17f0:	00812403          	lw	s0,8(sp)
    17f4:	01010113          	addi	sp,sp,16
    17f8:	00008067          	ret
    17fc:	40d60633          	sub	a2,a2,a3
    1800:	f0c7c4e3          	blt	a5,a2,1708 <move_ball+0x7c>
    1804:	406007b3          	neg	a5,t1
    1808:	40f8a423          	sw	a5,1032(a7)
    180c:	0a050063          	beqz	a0,18ac <move_ball+0x220>
    1810:	00e00793          	li	a5,14
    1814:	00c12083          	lw	ra,12(sp)
    1818:	3cf42823          	sw	a5,976(s0)
    181c:	00812403          	lw	s0,8(sp)
    1820:	01010113          	addi	sp,sp,16
    1824:	00008067          	ret
    1828:	00100693          	li	a3,1
    182c:	04d78a63          	beq	a5,a3,1880 <move_ball+0x1f4>
    1830:	00200693          	li	a3,2
    1834:	0ad79263          	bne	a5,a3,18d8 <move_ball+0x24c>
    1838:	040007b7          	lui	a5,0x4000
    183c:	02400693          	li	a3,36
    1840:	04d7a823          	sw	a3,80(a5) # 4000050 <_stack_end+0x3efdb90>
    1844:	ee9ff06f          	j	172c <move_ball+0xa0>
    1848:	00100713          	li	a4,1
    184c:	04e78263          	beq	a5,a4,1890 <move_ball+0x204>
    1850:	00200713          	li	a4,2
    1854:	06e78263          	beq	a5,a4,18b8 <move_ball+0x22c>
    1858:	00300693          	li	a3,3
    185c:	06d78663          	beq	a5,a3,18c8 <move_ball+0x23c>
    1860:	00400693          	li	a3,4
    1864:	0cd78863          	beq	a5,a3,1934 <move_ball+0x2a8>
    1868:	00500693          	li	a3,5
    186c:	0cd79c63          	bne	a5,a3,1944 <move_ball+0x2b8>
    1870:	040007b7          	lui	a5,0x4000
    1874:	01200713          	li	a4,18
    1878:	06e7a023          	sw	a4,96(a5) # 4000060 <_stack_end+0x3efdba0>
    187c:	f31ff06f          	j	17ac <move_ball+0x120>
    1880:	040007b7          	lui	a5,0x4000
    1884:	07900693          	li	a3,121
    1888:	04d7a823          	sw	a3,80(a5) # 4000050 <_stack_end+0x3efdb90>
    188c:	ea1ff06f          	j	172c <move_ball+0xa0>
    1890:	040007b7          	lui	a5,0x4000
    1894:	07900713          	li	a4,121
    1898:	06e7a023          	sw	a4,96(a5) # 4000060 <_stack_end+0x3efdba0>
    189c:	f11ff06f          	j	17ac <move_ball+0x120>
    18a0:	02d00513          	li	a0,45
    18a4:	fd8ff0ef          	jal	107c <rotate_ball_vector_counter_clockwise>
    18a8:	f3dff06f          	j	17e4 <move_ball+0x158>
    18ac:	02d00513          	li	a0,45
    18b0:	fccff0ef          	jal	107c <rotate_ball_vector_counter_clockwise>
    18b4:	f5dff06f          	j	1810 <move_ball+0x184>
    18b8:	040007b7          	lui	a5,0x4000
    18bc:	02400713          	li	a4,36
    18c0:	06e7a023          	sw	a4,96(a5) # 4000060 <_stack_end+0x3efdba0>
    18c4:	ee9ff06f          	j	17ac <move_ball+0x120>
    18c8:	040007b7          	lui	a5,0x4000
    18cc:	03000713          	li	a4,48
    18d0:	06e7a023          	sw	a4,96(a5) # 4000060 <_stack_end+0x3efdba0>
    18d4:	ed9ff06f          	j	17ac <move_ball+0x120>
    18d8:	00300613          	li	a2,3
    18dc:	00c79a63          	bne	a5,a2,18f0 <move_ball+0x264>
    18e0:	040007b7          	lui	a5,0x4000
    18e4:	03000693          	li	a3,48
    18e8:	04d7a823          	sw	a3,80(a5) # 4000050 <_stack_end+0x3efdb90>
    18ec:	e41ff06f          	j	172c <move_ball+0xa0>
    18f0:	00400613          	li	a2,4
    18f4:	00c78e63          	beq	a5,a2,1910 <move_ball+0x284>
    18f8:	00500613          	li	a2,5
    18fc:	02c79263          	bne	a5,a2,1920 <move_ball+0x294>
    1900:	040007b7          	lui	a5,0x4000
    1904:	01200693          	li	a3,18
    1908:	04d7a823          	sw	a3,80(a5) # 4000050 <_stack_end+0x3efdb90>
    190c:	e21ff06f          	j	172c <move_ball+0xa0>
    1910:	040007b7          	lui	a5,0x4000
    1914:	01900693          	li	a3,25
    1918:	04d7a823          	sw	a3,80(a5) # 4000050 <_stack_end+0x3efdb90>
    191c:	e11ff06f          	j	172c <move_ball+0xa0>
    1920:	00600613          	li	a2,6
    1924:	06c79c63          	bne	a5,a2,199c <move_ball+0x310>
    1928:	040007b7          	lui	a5,0x4000
    192c:	04d7a823          	sw	a3,80(a5) # 4000050 <_stack_end+0x3efdb90>
    1930:	dfdff06f          	j	172c <move_ball+0xa0>
    1934:	040007b7          	lui	a5,0x4000
    1938:	01900713          	li	a4,25
    193c:	06e7a023          	sw	a4,96(a5) # 4000060 <_stack_end+0x3efdba0>
    1940:	e6dff06f          	j	17ac <move_ball+0x120>
    1944:	00600693          	li	a3,6
    1948:	00d78e63          	beq	a5,a3,1964 <move_ball+0x2d8>
    194c:	00700713          	li	a4,7
    1950:	02e79063          	bne	a5,a4,1970 <move_ball+0x2e4>
    1954:	040007b7          	lui	a5,0x4000
    1958:	07800713          	li	a4,120
    195c:	06e7a023          	sw	a4,96(a5) # 4000060 <_stack_end+0x3efdba0>
    1960:	e4dff06f          	j	17ac <move_ball+0x120>
    1964:	040007b7          	lui	a5,0x4000
    1968:	06e7a023          	sw	a4,96(a5) # 4000060 <_stack_end+0x3efdba0>
    196c:	e41ff06f          	j	17ac <move_ball+0x120>
    1970:	00800713          	li	a4,8
    1974:	00e79863          	bne	a5,a4,1984 <move_ball+0x2f8>
    1978:	040007b7          	lui	a5,0x4000
    197c:	0607a023          	sw	zero,96(a5) # 4000060 <_stack_end+0x3efdba0>
    1980:	e2dff06f          	j	17ac <move_ball+0x120>
    1984:	00900713          	li	a4,9
    1988:	e2e792e3          	bne	a5,a4,17ac <move_ball+0x120>
    198c:	040007b7          	lui	a5,0x4000
    1990:	01000713          	li	a4,16
    1994:	06e7a023          	sw	a4,96(a5) # 4000060 <_stack_end+0x3efdba0>
    1998:	e15ff06f          	j	17ac <move_ball+0x120>
    199c:	00700693          	li	a3,7
    19a0:	00d79a63          	bne	a5,a3,19b4 <move_ball+0x328>
    19a4:	040007b7          	lui	a5,0x4000
    19a8:	07800693          	li	a3,120
    19ac:	04d7a823          	sw	a3,80(a5) # 4000050 <_stack_end+0x3efdb90>
    19b0:	d7dff06f          	j	172c <move_ball+0xa0>
    19b4:	00800693          	li	a3,8
    19b8:	00d79863          	bne	a5,a3,19c8 <move_ball+0x33c>
    19bc:	040007b7          	lui	a5,0x4000
    19c0:	0407a823          	sw	zero,80(a5) # 4000050 <_stack_end+0x3efdb90>
    19c4:	d69ff06f          	j	172c <move_ball+0xa0>
    19c8:	00900693          	li	a3,9
    19cc:	d6d790e3          	bne	a5,a3,172c <move_ball+0xa0>
    19d0:	040007b7          	lui	a5,0x4000
    19d4:	01000693          	li	a3,16
    19d8:	04d7a823          	sw	a3,80(a5) # 4000050 <_stack_end+0x3efdb90>
    19dc:	d51ff06f          	j	172c <move_ball+0xa0>

000019e0 <move_paddles>:
    19e0:	000027b7          	lui	a5,0x2
    19e4:	3c87a683          	lw	a3,968(a5) # 23c8 <paddle_height>
    19e8:	00002637          	lui	a2,0x2
    19ec:	3d862703          	lw	a4,984(a2) # 23d8 <player1_y>
    19f0:	01f6d793          	srli	a5,a3,0x1f
    19f4:	00d787b3          	add	a5,a5,a3
    19f8:	4017d793          	srai	a5,a5,0x1
    19fc:	000025b7          	lui	a1,0x2
    1a00:	3f45a503          	lw	a0,1012(a1) # 23f4 <reverse_paddles1>
    1a04:	40f706b3          	sub	a3,a4,a5
    1a08:	000025b7          	lui	a1,0x2
    1a0c:	4105a583          	lw	a1,1040(a1) # 2410 <player1_dy>
    1a10:	40f007b3          	neg	a5,a5
    1a14:	08d05663          	blez	a3,1aa0 <move_paddles+0xc0>
    1a18:	40f706b3          	sub	a3,a4,a5
    1a1c:	0ef00813          	li	a6,239
    1a20:	00d85c63          	bge	a6,a3,1a38 <move_paddles+0x58>
    1a24:	0a050063          	beqz	a0,1ac4 <move_paddles+0xe4>
    1a28:	00b05e63          	blez	a1,1a44 <move_paddles+0x64>
    1a2c:	40b70733          	sub	a4,a4,a1
    1a30:	3ce62c23          	sw	a4,984(a2)
    1a34:	0100006f          	j	1a44 <move_paddles+0x64>
    1a38:	fe051ae3          	bnez	a0,1a2c <move_paddles+0x4c>
    1a3c:	00b70733          	add	a4,a4,a1
    1a40:	3ce62c23          	sw	a4,984(a2)
    1a44:	000026b7          	lui	a3,0x2
    1a48:	3d46a703          	lw	a4,980(a3) # 23d4 <player2_y>
    1a4c:	00002637          	lui	a2,0x2
    1a50:	3f062583          	lw	a1,1008(a2) # 23f0 <reverse_paddles2>
    1a54:	00e78533          	add	a0,a5,a4
    1a58:	00002637          	lui	a2,0x2
    1a5c:	40c62603          	lw	a2,1036(a2) # 240c <player2_dy>
    1a60:	02a05063          	blez	a0,1a80 <move_paddles+0xa0>
    1a64:	40f707b3          	sub	a5,a4,a5
    1a68:	0ef00513          	li	a0,239
    1a6c:	02f54463          	blt	a0,a5,1a94 <move_paddles+0xb4>
    1a70:	00058c63          	beqz	a1,1a88 <move_paddles+0xa8>
    1a74:	40c70733          	sub	a4,a4,a2
    1a78:	3ce6aa23          	sw	a4,980(a3)
    1a7c:	00008067          	ret
    1a80:	02059a63          	bnez	a1,1ab4 <move_paddles+0xd4>
    1a84:	00c05663          	blez	a2,1a90 <move_paddles+0xb0>
    1a88:	00c70733          	add	a4,a4,a2
    1a8c:	3ce6aa23          	sw	a4,980(a3)
    1a90:	00008067          	ret
    1a94:	02058463          	beqz	a1,1abc <move_paddles+0xdc>
    1a98:	fcc04ee3          	bgtz	a2,1a74 <move_paddles+0x94>
    1a9c:	00008067          	ret
    1aa0:	00050663          	beqz	a0,1aac <move_paddles+0xcc>
    1aa4:	fa05d0e3          	bgez	a1,1a44 <move_paddles+0x64>
    1aa8:	f85ff06f          	j	1a2c <move_paddles+0x4c>
    1aac:	f8b048e3          	bgtz	a1,1a3c <move_paddles+0x5c>
    1ab0:	f95ff06f          	j	1a44 <move_paddles+0x64>
    1ab4:	fc0640e3          	bltz	a2,1a74 <move_paddles+0x94>
    1ab8:	00008067          	ret
    1abc:	fc0646e3          	bltz	a2,1a88 <move_paddles+0xa8>
    1ac0:	00008067          	ret
    1ac4:	f805d0e3          	bgez	a1,1a44 <move_paddles+0x64>
    1ac8:	f75ff06f          	j	1a3c <move_paddles+0x5c>

00001acc <get_sw>:
    1acc:	040007b7          	lui	a5,0x4000
    1ad0:	0107a503          	lw	a0,16(a5) # 4000010 <_stack_end+0x3efdb50>
    1ad4:	00008067          	ret

00001ad8 <get_btn>:
    1ad8:	040007b7          	lui	a5,0x4000
    1adc:	0d07a503          	lw	a0,208(a5) # 40000d0 <_stack_end+0x3efdc10>
    1ae0:	00008067          	ret

00001ae4 <get_digit>:
    1ae4:	40b55533          	sra	a0,a0,a1
    1ae8:	00157513          	andi	a0,a0,1
    1aec:	00008067          	ret

00001af0 <set_paddles_velocity>:
    1af0:	04000737          	lui	a4,0x4000
    1af4:	01072783          	lw	a5,16(a4) # 4000010 <_stack_end+0x3efdb50>
    1af8:	0017f713          	andi	a4,a5,1
    1afc:	02071e63          	bnez	a4,1b38 <set_paddles_velocity+0x48>
    1b00:	01e79713          	slli	a4,a5,0x1e
    1b04:	41f75713          	srai	a4,a4,0x1f
    1b08:	ff677713          	andi	a4,a4,-10
    1b0c:	000026b7          	lui	a3,0x2
    1b10:	40e6a623          	sw	a4,1036(a3) # 240c <player2_dy>
    1b14:	2007f713          	andi	a4,a5,512
    1b18:	1007f793          	andi	a5,a5,256
    1b1c:	04070063          	beqz	a4,1b5c <set_paddles_velocity+0x6c>
    1b20:	0017b793          	seqz	a5,a5
    1b24:	40f007b3          	neg	a5,a5
    1b28:	00a7f793          	andi	a5,a5,10
    1b2c:	00002737          	lui	a4,0x2
    1b30:	40f72823          	sw	a5,1040(a4) # 2410 <player1_dy>
    1b34:	00008067          	ret
    1b38:	0027f713          	andi	a4,a5,2
    1b3c:	00173713          	seqz	a4,a4
    1b40:	40e00733          	neg	a4,a4
    1b44:	00a77713          	andi	a4,a4,10
    1b48:	000026b7          	lui	a3,0x2
    1b4c:	40e6a623          	sw	a4,1036(a3) # 240c <player2_dy>
    1b50:	2007f713          	andi	a4,a5,512
    1b54:	1007f793          	andi	a5,a5,256
    1b58:	fc0714e3          	bnez	a4,1b20 <set_paddles_velocity+0x30>
    1b5c:	00f037b3          	snez	a5,a5
    1b60:	40f007b3          	neg	a5,a5
    1b64:	ff67f793          	andi	a5,a5,-10
    1b68:	00002737          	lui	a4,0x2
    1b6c:	40f72823          	sw	a5,1040(a4) # 2410 <player1_dy>
    1b70:	00008067          	ret

00001b74 <set_special_game_modes>:
    1b74:	04000537          	lui	a0,0x4000
    1b78:	01052783          	lw	a5,16(a0) # 4000010 <_stack_end+0x3efdb50>
    1b7c:	00002537          	lui	a0,0x2
    1b80:	0087f693          	andi	a3,a5,8
    1b84:	0107f713          	andi	a4,a5,16
    1b88:	0027d593          	srli	a1,a5,0x2
    1b8c:	0016b693          	seqz	a3,a3
    1b90:	0077d613          	srli	a2,a5,0x7
    1b94:	0015f593          	andi	a1,a1,1
    1b98:	00173713          	seqz	a4,a4
    1b9c:	40d006b3          	neg	a3,a3
    1ba0:	00167613          	andi	a2,a2,1
    1ba4:	40e00733          	neg	a4,a4
    1ba8:	fe76f693          	andi	a3,a3,-25
    1bac:	3eb52a23          	sw	a1,1012(a0) # 23f4 <reverse_paddles1>
    1bb0:	000025b7          	lui	a1,0x2
    1bb4:	01e68693          	addi	a3,a3,30
    1bb8:	01a77713          	andi	a4,a4,26
    1bbc:	3ec5a823          	sw	a2,1008(a1) # 23f0 <reverse_paddles2>
    1bc0:	00002637          	lui	a2,0x2
    1bc4:	00470713          	addi	a4,a4,4
    1bc8:	0057d793          	srli	a5,a5,0x5
    1bcc:	3cd62223          	sw	a3,964(a2) # 23c4 <ball_size>
    1bd0:	000026b7          	lui	a3,0x2
    1bd4:	0017f793          	andi	a5,a5,1
    1bd8:	3ce6a423          	sw	a4,968(a3) # 23c8 <paddle_height>
    1bdc:	00002737          	lui	a4,0x2
    1be0:	3ef72623          	sw	a5,1004(a4) # 23ec <fast_ball>
    1be4:	00008067          	ret

00001be8 <printc>:
    1be8:	04000737          	lui	a4,0x4000
    1bec:	04470713          	addi	a4,a4,68 # 4000044 <_stack_end+0x3efdb84>
    1bf0:	000106b7          	lui	a3,0x10
    1bf4:	00072783          	lw	a5,0(a4)
    1bf8:	fed7eee3          	bltu	a5,a3,1bf4 <printc+0xc>
    1bfc:	040007b7          	lui	a5,0x4000
    1c00:	04a7a023          	sw	a0,64(a5) # 4000040 <_stack_end+0x3efdb80>
    1c04:	00008067          	ret

00001c08 <print>:
    1c08:	00054603          	lbu	a2,0(a0)
    1c0c:	02060863          	beqz	a2,1c3c <print+0x34>
    1c10:	04000737          	lui	a4,0x4000
    1c14:	040005b7          	lui	a1,0x4000
    1c18:	04470713          	addi	a4,a4,68 # 4000044 <_stack_end+0x3efdb84>
    1c1c:	000106b7          	lui	a3,0x10
    1c20:	04058593          	addi	a1,a1,64 # 4000040 <_stack_end+0x3efdb80>
    1c24:	00072783          	lw	a5,0(a4)
    1c28:	fed7eee3          	bltu	a5,a3,1c24 <print+0x1c>
    1c2c:	00c5a023          	sw	a2,0(a1)
    1c30:	00154603          	lbu	a2,1(a0)
    1c34:	00150513          	addi	a0,a0,1
    1c38:	fe0616e3          	bnez	a2,1c24 <print+0x1c>
    1c3c:	00008067          	ret

00001c40 <print_dec>:
    1c40:	3b9ad737          	lui	a4,0x3b9ad
    1c44:	040006b7          	lui	a3,0x4000
    1c48:	04000337          	lui	t1,0x4000
    1c4c:	00a00593          	li	a1,10
    1c50:	00000793          	li	a5,0
    1c54:	a0070713          	addi	a4,a4,-1536 # 3b9aca00 <_stack_end+0x3b8aa540>
    1c58:	04468693          	addi	a3,a3,68 # 4000044 <_stack_end+0x3efdb84>
    1c5c:	00010637          	lui	a2,0x10
    1c60:	04030313          	addi	t1,t1,64 # 4000040 <_stack_end+0x3efdb80>
    1c64:	00a00893          	li	a7,10
    1c68:	04e57063          	bgeu	a0,a4,1ca8 <print_dec+0x68>
    1c6c:	02079e63          	bnez	a5,1ca8 <print_dec+0x68>
    1c70:	fff58593          	addi	a1,a1,-1
    1c74:	02e57533          	remu	a0,a0,a4
    1c78:	03175733          	divu	a4,a4,a7
    1c7c:	fe0596e3          	bnez	a1,1c68 <print_dec+0x28>
    1c80:	02079263          	bnez	a5,1ca4 <print_dec+0x64>
    1c84:	04000737          	lui	a4,0x4000
    1c88:	04470713          	addi	a4,a4,68 # 4000044 <_stack_end+0x3efdb84>
    1c8c:	000106b7          	lui	a3,0x10
    1c90:	00072783          	lw	a5,0(a4)
    1c94:	fed7eee3          	bltu	a5,a3,1c90 <print_dec+0x50>
    1c98:	040007b7          	lui	a5,0x4000
    1c9c:	03000713          	li	a4,48
    1ca0:	04e7a023          	sw	a4,64(a5) # 4000040 <_stack_end+0x3efdb80>
    1ca4:	00008067          	ret
    1ca8:	02e55833          	divu	a6,a0,a4
    1cac:	03080813          	addi	a6,a6,48
    1cb0:	0ff87813          	zext.b	a6,a6
    1cb4:	0006a783          	lw	a5,0(a3) # 10000 <__global_pointer+0xd444>
    1cb8:	fec7eee3          	bltu	a5,a2,1cb4 <print_dec+0x74>
    1cbc:	01032023          	sw	a6,0(t1)
    1cc0:	00100793          	li	a5,1
    1cc4:	fadff06f          	j	1c70 <print_dec+0x30>

00001cc8 <print_hex32>:
    1cc8:	04000737          	lui	a4,0x4000
    1ccc:	04470713          	addi	a4,a4,68 # 4000044 <_stack_end+0x3efdb84>
    1cd0:	000106b7          	lui	a3,0x10
    1cd4:	00072783          	lw	a5,0(a4)
    1cd8:	fed7eee3          	bltu	a5,a3,1cd4 <print_hex32+0xc>
    1cdc:	03000693          	li	a3,48
    1ce0:	040007b7          	lui	a5,0x4000
    1ce4:	04000737          	lui	a4,0x4000
    1ce8:	04d7a023          	sw	a3,64(a5) # 4000040 <_stack_end+0x3efdb80>
    1cec:	04470713          	addi	a4,a4,68 # 4000044 <_stack_end+0x3efdb84>
    1cf0:	000106b7          	lui	a3,0x10
    1cf4:	00072783          	lw	a5,0(a4)
    1cf8:	fed7eee3          	bltu	a5,a3,1cf4 <print_hex32+0x2c>
    1cfc:	04000837          	lui	a6,0x4000
    1d00:	04080813          	addi	a6,a6,64 # 4000040 <_stack_end+0x3efdb80>
    1d04:	04000737          	lui	a4,0x4000
    1d08:	07800793          	li	a5,120
    1d0c:	00f82023          	sw	a5,0(a6)
    1d10:	01c00613          	li	a2,28
    1d14:	00900313          	li	t1,9
    1d18:	04470713          	addi	a4,a4,68 # 4000044 <_stack_end+0x3efdb84>
    1d1c:	000106b7          	lui	a3,0x10
    1d20:	ffc00893          	li	a7,-4
    1d24:	00c557b3          	srl	a5,a0,a2
    1d28:	00f7f793          	andi	a5,a5,15
    1d2c:	03778593          	addi	a1,a5,55
    1d30:	00f36463          	bltu	t1,a5,1d38 <print_hex32+0x70>
    1d34:	03078593          	addi	a1,a5,48
    1d38:	00072783          	lw	a5,0(a4)
    1d3c:	fed7eee3          	bltu	a5,a3,1d38 <print_hex32+0x70>
    1d40:	00b82023          	sw	a1,0(a6)
    1d44:	ffc60613          	addi	a2,a2,-4 # fffc <__global_pointer+0xd440>
    1d48:	fd161ee3          	bne	a2,a7,1d24 <print_hex32+0x5c>
    1d4c:	00008067          	ret

00001d50 <handle_exception>:
    1d50:	00200793          	li	a5,2
    1d54:	18f80863          	beq	a6,a5,1ee4 <handle_exception+0x194>
    1d58:	00b00793          	li	a5,11
    1d5c:	12f80063          	beq	a6,a5,1e7c <handle_exception+0x12c>
    1d60:	04000737          	lui	a4,0x4000
    1d64:	14081463          	bnez	a6,1eac <handle_exception+0x15c>
    1d68:	04000837          	lui	a6,0x4000
    1d6c:	00002637          	lui	a2,0x2
    1d70:	43860613          	addi	a2,a2,1080 # 2438 <player1_dy+0x28>
    1d74:	00a00593          	li	a1,10
    1d78:	04470713          	addi	a4,a4,68 # 4000044 <_stack_end+0x3efdb84>
    1d7c:	000106b7          	lui	a3,0x10
    1d80:	04080813          	addi	a6,a6,64 # 4000040 <_stack_end+0x3efdb80>
    1d84:	00072783          	lw	a5,0(a4)
    1d88:	fed7eee3          	bltu	a5,a3,1d84 <handle_exception+0x34>
    1d8c:	00b82023          	sw	a1,0(a6)
    1d90:	00164583          	lbu	a1,1(a2)
    1d94:	00160613          	addi	a2,a2,1
    1d98:	fe0596e3          	bnez	a1,1d84 <handle_exception+0x34>
    1d9c:	04000737          	lui	a4,0x4000
    1da0:	04000837          	lui	a6,0x4000
    1da4:	00002637          	lui	a2,0x2
    1da8:	4ac60613          	addi	a2,a2,1196 # 24ac <player1_dy+0x9c>
    1dac:	04500593          	li	a1,69
    1db0:	04470713          	addi	a4,a4,68 # 4000044 <_stack_end+0x3efdb84>
    1db4:	000106b7          	lui	a3,0x10
    1db8:	04080813          	addi	a6,a6,64 # 4000040 <_stack_end+0x3efdb80>
    1dbc:	00072783          	lw	a5,0(a4)
    1dc0:	fed7eee3          	bltu	a5,a3,1dbc <handle_exception+0x6c>
    1dc4:	00b82023          	sw	a1,0(a6)
    1dc8:	00164583          	lbu	a1,1(a2)
    1dcc:	00160613          	addi	a2,a2,1
    1dd0:	fe0596e3          	bnez	a1,1dbc <handle_exception+0x6c>
    1dd4:	04000737          	lui	a4,0x4000
    1dd8:	04470713          	addi	a4,a4,68 # 4000044 <_stack_end+0x3efdb84>
    1ddc:	000106b7          	lui	a3,0x10
    1de0:	00072783          	lw	a5,0(a4)
    1de4:	fed7eee3          	bltu	a5,a3,1de0 <handle_exception+0x90>
    1de8:	03000693          	li	a3,48
    1dec:	040007b7          	lui	a5,0x4000
    1df0:	04000737          	lui	a4,0x4000
    1df4:	04d7a023          	sw	a3,64(a5) # 4000040 <_stack_end+0x3efdb80>
    1df8:	04470713          	addi	a4,a4,68 # 4000044 <_stack_end+0x3efdb84>
    1dfc:	000106b7          	lui	a3,0x10
    1e00:	00072783          	lw	a5,0(a4)
    1e04:	fed7eee3          	bltu	a5,a3,1e00 <handle_exception+0xb0>
    1e08:	04000837          	lui	a6,0x4000
    1e0c:	04080813          	addi	a6,a6,64 # 4000040 <_stack_end+0x3efdb80>
    1e10:	04000737          	lui	a4,0x4000
    1e14:	07800793          	li	a5,120
    1e18:	00f82023          	sw	a5,0(a6)
    1e1c:	01c00613          	li	a2,28
    1e20:	00900313          	li	t1,9
    1e24:	04470713          	addi	a4,a4,68 # 4000044 <_stack_end+0x3efdb84>
    1e28:	000106b7          	lui	a3,0x10
    1e2c:	ffc00893          	li	a7,-4
    1e30:	00c557b3          	srl	a5,a0,a2
    1e34:	00f7f793          	andi	a5,a5,15
    1e38:	03778593          	addi	a1,a5,55
    1e3c:	00f36463          	bltu	t1,a5,1e44 <handle_exception+0xf4>
    1e40:	03078593          	addi	a1,a5,48
    1e44:	00072783          	lw	a5,0(a4)
    1e48:	fed7eee3          	bltu	a5,a3,1e44 <handle_exception+0xf4>
    1e4c:	00b82023          	sw	a1,0(a6)
    1e50:	ffc60613          	addi	a2,a2,-4
    1e54:	fd161ee3          	bne	a2,a7,1e30 <handle_exception+0xe0>
    1e58:	04000737          	lui	a4,0x4000
    1e5c:	04470713          	addi	a4,a4,68 # 4000044 <_stack_end+0x3efdb84>
    1e60:	000106b7          	lui	a3,0x10
    1e64:	00072783          	lw	a5,0(a4)
    1e68:	fed7eee3          	bltu	a5,a3,1e64 <handle_exception+0x114>
    1e6c:	040007b7          	lui	a5,0x4000
    1e70:	00a00713          	li	a4,10
    1e74:	04e7a023          	sw	a4,64(a5) # 4000040 <_stack_end+0x3efdb80>
    1e78:	0000006f          	j	1e78 <handle_exception+0x128>
    1e7c:	00400793          	li	a5,4
    1e80:	0af88063          	beq	a7,a5,1f20 <handle_exception+0x1d0>
    1e84:	0d089a63          	bne	a7,a6,1f58 <handle_exception+0x208>
    1e88:	04000737          	lui	a4,0x4000
    1e8c:	04470713          	addi	a4,a4,68 # 4000044 <_stack_end+0x3efdb84>
    1e90:	000106b7          	lui	a3,0x10
    1e94:	00072783          	lw	a5,0(a4)
    1e98:	fed7eee3          	bltu	a5,a3,1e94 <handle_exception+0x144>
    1e9c:	040007b7          	lui	a5,0x4000
    1ea0:	0ff57513          	zext.b	a0,a0
    1ea4:	04a7a023          	sw	a0,64(a5) # 4000040 <_stack_end+0x3efdb80>
    1ea8:	00008067          	ret
    1eac:	04000837          	lui	a6,0x4000
    1eb0:	00002637          	lui	a2,0x2
    1eb4:	48c60613          	addi	a2,a2,1164 # 248c <player1_dy+0x7c>
    1eb8:	00a00593          	li	a1,10
    1ebc:	04470713          	addi	a4,a4,68
    1ec0:	000106b7          	lui	a3,0x10
    1ec4:	04080813          	addi	a6,a6,64 # 4000040 <_stack_end+0x3efdb80>
    1ec8:	00072783          	lw	a5,0(a4)
    1ecc:	fed7eee3          	bltu	a5,a3,1ec8 <handle_exception+0x178>
    1ed0:	00b82023          	sw	a1,0(a6)
    1ed4:	00164583          	lbu	a1,1(a2)
    1ed8:	00160613          	addi	a2,a2,1
    1edc:	fe0596e3          	bnez	a1,1ec8 <handle_exception+0x178>
    1ee0:	ebdff06f          	j	1d9c <handle_exception+0x4c>
    1ee4:	04000737          	lui	a4,0x4000
    1ee8:	04000837          	lui	a6,0x4000
    1eec:	00002637          	lui	a2,0x2
    1ef0:	46860613          	addi	a2,a2,1128 # 2468 <player1_dy+0x58>
    1ef4:	00a00593          	li	a1,10
    1ef8:	04470713          	addi	a4,a4,68 # 4000044 <_stack_end+0x3efdb84>
    1efc:	000106b7          	lui	a3,0x10
    1f00:	04080813          	addi	a6,a6,64 # 4000040 <_stack_end+0x3efdb80>
    1f04:	00072783          	lw	a5,0(a4)
    1f08:	fed7eee3          	bltu	a5,a3,1f04 <handle_exception+0x1b4>
    1f0c:	00b82023          	sw	a1,0(a6)
    1f10:	00164583          	lbu	a1,1(a2)
    1f14:	00160613          	addi	a2,a2,1
    1f18:	fe0596e3          	bnez	a1,1f04 <handle_exception+0x1b4>
    1f1c:	e81ff06f          	j	1d9c <handle_exception+0x4c>
    1f20:	00054603          	lbu	a2,0(a0)
    1f24:	02060a63          	beqz	a2,1f58 <handle_exception+0x208>
    1f28:	04000737          	lui	a4,0x4000
    1f2c:	040005b7          	lui	a1,0x4000
    1f30:	04470713          	addi	a4,a4,68 # 4000044 <_stack_end+0x3efdb84>
    1f34:	000106b7          	lui	a3,0x10
    1f38:	04058593          	addi	a1,a1,64 # 4000040 <_stack_end+0x3efdb80>
    1f3c:	00072783          	lw	a5,0(a4)
    1f40:	fed7eee3          	bltu	a5,a3,1f3c <handle_exception+0x1ec>
    1f44:	00c5a023          	sw	a2,0(a1)
    1f48:	00154603          	lbu	a2,1(a0)
    1f4c:	00150513          	addi	a0,a0,1
    1f50:	fe0616e3          	bnez	a2,1f3c <handle_exception+0x1ec>
    1f54:	00008067          	ret
    1f58:	00008067          	ret

00001f5c <nextprime>:
    1f5c:	00200713          	li	a4,2
    1f60:	00050793          	mv	a5,a0
    1f64:	02a74063          	blt	a4,a0,1f84 <nextprime+0x28>
    1f68:	00100513          	li	a0,1
    1f6c:	00f05a63          	blez	a5,1f80 <nextprime+0x24>
    1f70:	fff78793          	addi	a5,a5,-1
    1f74:	00f037b3          	snez	a5,a5
    1f78:	00278513          	addi	a0,a5,2
    1f7c:	00008067          	ret
    1f80:	00008067          	ret
    1f84:	00150793          	addi	a5,a0,1
    1f88:	0017e513          	ori	a0,a5,1
    1f8c:	00300613          	li	a2,3
    1f90:	02c567b3          	rem	a5,a0,a2
    1f94:	40155693          	srai	a3,a0,0x1
    1f98:	02078263          	beqz	a5,1fbc <nextprime+0x60>
    1f9c:	00268693          	addi	a3,a3,2 # 10002 <__global_pointer+0xd446>
    1fa0:	00300793          	li	a5,3
    1fa4:	00c0006f          	j	1fb0 <nextprime+0x54>
    1fa8:	02f56733          	rem	a4,a0,a5
    1fac:	00070863          	beqz	a4,1fbc <nextprime+0x60>
    1fb0:	00178793          	addi	a5,a5,1
    1fb4:	fef69ae3          	bne	a3,a5,1fa8 <nextprime+0x4c>
    1fb8:	00008067          	ret
    1fbc:	00250513          	addi	a0,a0,2
    1fc0:	fd1ff06f          	j	1f90 <nextprime+0x34>

00001fc4 <__subsf3>:
    1fc4:	800007b7          	lui	a5,0x80000
    1fc8:	00f5c5b3          	xor	a1,a1,a5

00001fcc <__addsf3>:
    1fcc:	80000337          	lui	t1,0x80000
    1fd0:	00b543b3          	xor	t2,a0,a1
    1fd4:	00657733          	and	a4,a0,t1
    1fd8:	00151613          	slli	a2,a0,0x1
    1fdc:	00159693          	slli	a3,a1,0x1
    1fe0:	00d67863          	bgeu	a2,a3,1ff0 <__addsf3+0x24>
    1fe4:	0065f733          	and	a4,a1,t1
    1fe8:	00159613          	slli	a2,a1,0x1
    1fec:	00151693          	slli	a3,a0,0x1
    1ff0:	ff0007b7          	lui	a5,0xff000
    1ff4:	18f67463          	bgeu	a2,a5,217c <infnan>
    1ff8:	18f6f263          	bgeu	a3,a5,217c <infnan>
    1ffc:	14d60263          	beq	a2,a3,2140 <equal>
    2000:	00761513          	slli	a0,a2,0x7
    2004:	00769593          	slli	a1,a3,0x7
    2008:	01865613          	srli	a2,a2,0x18
    200c:	0186d693          	srli	a3,a3,0x18
    2010:	10060463          	beqz	a2,2118 <both_zero_denormal>
    2014:	40d602b3          	sub	t0,a2,a3
    2018:	01a2b793          	sltiu	a5,t0,26
    201c:	10078863          	beqz	a5,212c <return_greater>
    2020:	10068663          	beqz	a3,212c <return_greater>
    2024:	fff60613          	addi	a2,a2,-1
    2028:	00656533          	or	a0,a0,t1
    202c:	0065e5b3          	or	a1,a1,t1

00002030 <sum>:
    2030:	0055d7b3          	srl	a5,a1,t0
    2034:	00128293          	addi	t0,t0,1
    2038:	405002b3          	neg	t0,t0
    203c:	005595b3          	sll	a1,a1,t0
    2040:	0403c863          	bltz	t2,2090 <diff_sign>
    2044:	00f50533          	add	a0,a0,a5

00002048 <pos_or_zero>:
    2048:	00f57c63          	bgeu	a0,a5,2060 <adjust>
    204c:	00155513          	srli	a0,a0,0x1
    2050:	00656533          	or	a0,a0,t1
    2054:	00160613          	addi	a2,a2,1
    2058:	0fe00793          	li	a5,254
    205c:	10f65c63          	bge	a2,a5,2174 <inf>

00002060 <adjust>:
    2060:	0015d593          	srli	a1,a1,0x1
    2064:	01851693          	slli	a3,a0,0x18
    2068:	00b6e6b3          	or	a3,a3,a1
    206c:	00855513          	srli	a0,a0,0x8

00002070 <rounding>:
    2070:	0066e863          	bltu	a3,t1,2080 <exp_sign_and_exit>
    2074:	00150513          	addi	a0,a0,1
    2078:	00669463          	bne	a3,t1,2080 <exp_sign_and_exit>
    207c:	ffe57513          	andi	a0,a0,-2

00002080 <exp_sign_and_exit>:
    2080:	01761613          	slli	a2,a2,0x17
    2084:	00c50533          	add	a0,a0,a2

00002088 <sign_and_exit>:
    2088:	00e56533          	or	a0,a0,a4

0000208c <exit>:
    208c:	00008067          	ret

00002090 <diff_sign>:
    2090:	00b036b3          	snez	a3,a1
    2094:	00d7e7b3          	or	a5,a5,a3
    2098:	40f50533          	sub	a0,a0,a5
    209c:	fc0542e3          	bltz	a0,2060 <adjust>

000020a0 <num_canc>:
    20a0:	00151513          	slli	a0,a0,0x1
    20a4:	00060793          	mv	a5,a2
    20a8:	fff60613          	addi	a2,a2,-1
    20ac:	06078263          	beqz	a5,2110 <signed_zero>
    20b0:	fa6578e3          	bgeu	a0,t1,2060 <adjust>
    20b4:	000807b7          	lui	a5,0x80
    20b8:	00f57663          	bgeu	a0,a5,20c4 <num_canc+0x24>
    20bc:	00c51513          	slli	a0,a0,0xc
    20c0:	ff460613          	addi	a2,a2,-12
    20c4:	00679793          	slli	a5,a5,0x6
    20c8:	00f57663          	bgeu	a0,a5,20d4 <num_canc+0x34>
    20cc:	00651513          	slli	a0,a0,0x6
    20d0:	ffa60613          	addi	a2,a2,-6
    20d4:	00379793          	slli	a5,a5,0x3
    20d8:	00f57663          	bgeu	a0,a5,20e4 <num_canc+0x44>
    20dc:	00351513          	slli	a0,a0,0x3
    20e0:	ffd60613          	addi	a2,a2,-3
    20e4:	00179793          	slli	a5,a5,0x1
    20e8:	00f57663          	bgeu	a0,a5,20f4 <num_canc+0x54>
    20ec:	00151513          	slli	a0,a0,0x1
    20f0:	fff60613          	addi	a2,a2,-1
    20f4:	00179793          	slli	a5,a5,0x1
    20f8:	00f57663          	bgeu	a0,a5,2104 <num_canc+0x64>
    20fc:	00151513          	slli	a0,a0,0x1
    2100:	fff60613          	addi	a2,a2,-1
    2104:	00755513          	srli	a0,a0,0x7
    2108:	fff60613          	addi	a2,a2,-1
    210c:	f6065ae3          	bgez	a2,2080 <exp_sign_and_exit>

00002110 <signed_zero>:
    2110:	00070513          	mv	a0,a4
    2114:	00008067          	ret

00002118 <both_zero_denormal>:
    2118:	0063c3b3          	xor	t2,t2,t1
    211c:	00777533          	and	a0,a4,t2

00002120 <zero_mantissa>:
    2120:	01f55513          	srli	a0,a0,0x1f
    2124:	01f51513          	slli	a0,a0,0x1f
    2128:	00008067          	ret

0000212c <return_greater>:
    212c:	00855513          	srli	a0,a0,0x8
    2130:	01761613          	slli	a2,a2,0x17
    2134:	00c56533          	or	a0,a0,a2
    2138:	00e56533          	or	a0,a0,a4
    213c:	00008067          	ret

00002140 <equal>:
    2140:	00b50663          	beq	a0,a1,214c <equal_samesign>

00002144 <zero>:
    2144:	00000513          	li	a0,0
    2148:	00008067          	ret

0000214c <equal_samesign>:
    214c:	00c7f7b3          	and	a5,a5,a2
    2150:	fc0788e3          	beqz	a5,2120 <zero_mantissa>

00002154 <equal_nodenormal>:
    2154:	01865613          	srli	a2,a2,0x18
    2158:	0fe63793          	sltiu	a5,a2,254
    215c:	00078863          	beqz	a5,216c <equal_nodenormal+0x18>
    2160:	008007b7          	lui	a5,0x800
    2164:	00f50533          	add	a0,a0,a5
    2168:	00008067          	ret
    216c:	01f79793          	slli	a5,a5,0x1f
    2170:	00a7f6b3          	and	a3,a5,a0

00002174 <inf>:
    2174:	7f800537          	lui	a0,0x7f800
    2178:	f11ff06f          	j	2088 <sign_and_exit>

0000217c <infnan>:
    217c:	00c7e663          	bltu	a5,a2,2188 <produce_nan>
    2180:	fed61ae3          	bne	a2,a3,2174 <inf>

00002184 <inf_inf>:
    2184:	f0b504e3          	beq	a0,a1,208c <exit>

00002188 <produce_nan>:
    2188:	7fc00537          	lui	a0,0x7fc00
    218c:	00008067          	ret

00002190 <__fixsfsi>:
    2190:	80000737          	lui	a4,0x80000
    2194:	41f55793          	srai	a5,a0,0x1f
    2198:	00151513          	slli	a0,a0,0x1
    219c:	01855593          	srli	a1,a0,0x18
    21a0:	f8158593          	addi	a1,a1,-127
    21a4:	0205ca63          	bltz	a1,21d8 <undflow>
    21a8:	40b005b3          	neg	a1,a1
    21ac:	01f58593          	addi	a1,a1,31
    21b0:	00b05e63          	blez	a1,21cc <ovflow>
    21b4:	00751513          	slli	a0,a0,0x7
    21b8:	00e56533          	or	a0,a0,a4
    21bc:	00b55533          	srl	a0,a0,a1
    21c0:	00f54533          	xor	a0,a0,a5
    21c4:	40f50533          	sub	a0,a0,a5
    21c8:	00008067          	ret

000021cc <ovflow>:
    21cc:	fff70513          	addi	a0,a4,-1 # 7fffffff <_stack_end+0x7fefdb3f>
    21d0:	00f54533          	xor	a0,a0,a5
    21d4:	00008067          	ret

000021d8 <undflow>:
    21d8:	00000513          	li	a0,0
    21dc:	00008067          	ret

000021e0 <__floatsisf>:
    21e0:	04050a63          	beqz	a0,2234 <exit>
    21e4:	41f55793          	srai	a5,a0,0x1f
    21e8:	00f54533          	xor	a0,a0,a5
    21ec:	40f50533          	sub	a0,a0,a5
    21f0:	01f79793          	slli	a5,a5,0x1f
    21f4:	09d00593          	li	a1,157
    21f8:	00054863          	bltz	a0,2208 <__floatsisf+0x28>
    21fc:	fff58593          	addi	a1,a1,-1
    2200:	00151513          	slli	a0,a0,0x1
    2204:	fea04ce3          	bgtz	a0,21fc <__floatsisf+0x1c>
    2208:	01851613          	slli	a2,a0,0x18
    220c:	00855513          	srli	a0,a0,0x8
    2210:	00065c63          	bgez	a2,2228 <__floatsisf+0x48>
    2214:	00150513          	addi	a0,a0,1 # 7fc00001 <_stack_end+0x7fafdb41>
    2218:	00161613          	slli	a2,a2,0x1
    221c:	00163613          	seqz	a2,a2
    2220:	fff64613          	not	a2,a2
    2224:	00c57533          	and	a0,a0,a2
    2228:	01759593          	slli	a1,a1,0x17
    222c:	00b50533          	add	a0,a0,a1
    2230:	00f56533          	or	a0,a0,a5

00002234 <exit>:
    2234:	00008067          	ret

00002238 <__mulsf3>:
    2238:	80000737          	lui	a4,0x80000
    223c:	00b547b3          	xor	a5,a0,a1
    2240:	00f77733          	and	a4,a4,a5
    2244:	0ff00793          	li	a5,255
    2248:	01755613          	srli	a2,a0,0x17
    224c:	00f67633          	and	a2,a2,a5
    2250:	0175d693          	srli	a3,a1,0x17
    2254:	00f6f6b3          	and	a3,a3,a5
    2258:	08f60c63          	beq	a2,a5,22f0 <inf_nan>
    225c:	08f68a63          	beq	a3,a5,22f0 <inf_nan>
    2260:	08060463          	beqz	a2,22e8 <append_zero>
    2264:	08068263          	beqz	a3,22e8 <append_zero>

00002268 <normal_case>:
    2268:	00d60633          	add	a2,a2,a3
    226c:	00951513          	slli	a0,a0,0x9
    2270:	00959593          	slli	a1,a1,0x9
    2274:	080006b7          	lui	a3,0x8000
    2278:	00555513          	srli	a0,a0,0x5
    227c:	0055d593          	srli	a1,a1,0x5
    2280:	00d56533          	or	a0,a0,a3
    2284:	00d5e5b3          	or	a1,a1,a3
    2288:	02b506b3          	mul	a3,a0,a1
    228c:	02b535b3          	mulhu	a1,a0,a1
    2290:	00070513          	mv	a0,a4
    2294:	008007b7          	lui	a5,0x800
    2298:	00f5fc63          	bgeu	a1,a5,22b0 <normal_case+0x48>
    229c:	00159593          	slli	a1,a1,0x1
    22a0:	01f6d793          	srli	a5,a3,0x1f
    22a4:	00f5e5b3          	or	a1,a1,a5
    22a8:	00169693          	slli	a3,a3,0x1
    22ac:	fff60613          	addi	a2,a2,-1
    22b0:	00b56533          	or	a0,a0,a1
    22b4:	f8160613          	addi	a2,a2,-127
    22b8:	0fe00793          	li	a5,254
    22bc:	02f67263          	bgeu	a2,a5,22e0 <und_ov_flow>
    22c0:	80000737          	lui	a4,0x80000
    22c4:	01761613          	slli	a2,a2,0x17
    22c8:	00c50533          	add	a0,a0,a2
    22cc:	00e6e863          	bltu	a3,a4,22dc <exit>
    22d0:	00150513          	addi	a0,a0,1
    22d4:	00e69463          	bne	a3,a4,22dc <exit>
    22d8:	ffe57513          	andi	a0,a0,-2

000022dc <exit>:
    22dc:	00008067          	ret

000022e0 <und_ov_flow>:
    22e0:	02c04a63          	bgtz	a2,2314 <inf>
    22e4:	0040006f          	j	22e8 <append_zero>

000022e8 <append_zero>:
    22e8:	00070513          	mv	a0,a4
    22ec:	00008067          	ret

000022f0 <inf_nan>:
    22f0:	01861613          	slli	a2,a2,0x18
    22f4:	01869693          	slli	a3,a3,0x18
    22f8:	02060463          	beqz	a2,2320 <nan>
    22fc:	02068263          	beqz	a3,2320 <nan>
    2300:	01879793          	slli	a5,a5,0x18
    2304:	00151693          	slli	a3,a0,0x1
    2308:	00d7ec63          	bltu	a5,a3,2320 <nan>
    230c:	00159693          	slli	a3,a1,0x1
    2310:	00d7e863          	bltu	a5,a3,2320 <nan>

00002314 <inf>:
    2314:	7f800537          	lui	a0,0x7f800
    2318:	00e56533          	or	a0,a0,a4
    231c:	00008067          	ret

00002320 <nan>:
    2320:	7fc00537          	lui	a0,0x7fc00
    2324:	00008067          	ret

Disassembly of section .data:

00002328 <welcome_msg>:
    2328:	3d3d                	.insn	2, 0x3d3d
    232a:	3d3d                	.insn	2, 0x3d3d
    232c:	3d3d                	.insn	2, 0x3d3d
    232e:	3d3d                	.insn	2, 0x3d3d
    2330:	3d3d                	.insn	2, 0x3d3d
    2332:	3d3d                	.insn	2, 0x3d3d
    2334:	3d3d                	.insn	2, 0x3d3d
    2336:	3d3d                	.insn	2, 0x3d3d
    2338:	3d3d                	.insn	2, 0x3d3d
    233a:	3d3d                	.insn	2, 0x3d3d
    233c:	3d3d                	.insn	2, 0x3d3d
    233e:	3d3d                	.insn	2, 0x3d3d
    2340:	3d3d                	.insn	2, 0x3d3d
    2342:	3d3d                	.insn	2, 0x3d3d
    2344:	3d3d                	.insn	2, 0x3d3d
    2346:	3d3d                	.insn	2, 0x3d3d
    2348:	3d3d                	.insn	2, 0x3d3d
    234a:	3d3d                	.insn	2, 0x3d3d
    234c:	3d3d                	.insn	2, 0x3d3d
    234e:	3d3d                	.insn	2, 0x3d3d
    2350:	3d3d                	.insn	2, 0x3d3d
    2352:	3d3d                	.insn	2, 0x3d3d
    2354:	3d3d                	.insn	2, 0x3d3d
    2356:	3d3d                	.insn	2, 0x3d3d
    2358:	3d0a                	.insn	2, 0x3d0a
    235a:	3d3d                	.insn	2, 0x3d3d
    235c:	3d3d                	.insn	2, 0x3d3d
    235e:	5220                	.insn	2, 0x5220
    2360:	5349                	.insn	2, 0x5349
    2362:	20562d43          	.insn	4, 0x20562d43
    2366:	6f42                	.insn	2, 0x6f42
    2368:	552d746f          	jal	s0,d98ba <__global_pointer+0xd6cfe>
    236c:	2070                	.insn	2, 0x2070
    236e:	7250                	.insn	2, 0x7250
    2370:	7365636f          	jal	t1,58aa6 <__global_pointer+0x55eea>
    2374:	6f4e2073          	csrs	0x6f4,t3
    2378:	6f432077          	.insn	4, 0x6f432077
    237c:	706d                	.insn	2, 0x706d
    237e:	656c                	.insn	2, 0x656c
    2380:	6574                	.insn	2, 0x6574
    2382:	3d20                	.insn	2, 0x3d20
    2384:	3d3d                	.insn	2, 0x3d3d
    2386:	3d3d                	.insn	2, 0x3d3d
    2388:	0a3d                	.insn	2, 0x0a3d
    238a:	3d3d                	.insn	2, 0x3d3d
    238c:	3d3d                	.insn	2, 0x3d3d
    238e:	3d3d                	.insn	2, 0x3d3d
    2390:	3d3d                	.insn	2, 0x3d3d
    2392:	3d3d                	.insn	2, 0x3d3d
    2394:	3d3d                	.insn	2, 0x3d3d
    2396:	3d3d                	.insn	2, 0x3d3d
    2398:	3d3d                	.insn	2, 0x3d3d
    239a:	3d3d                	.insn	2, 0x3d3d
    239c:	3d3d                	.insn	2, 0x3d3d
    239e:	3d3d                	.insn	2, 0x3d3d
    23a0:	3d3d                	.insn	2, 0x3d3d
    23a2:	3d3d                	.insn	2, 0x3d3d
    23a4:	3d3d                	.insn	2, 0x3d3d
    23a6:	3d3d                	.insn	2, 0x3d3d
    23a8:	3d3d                	.insn	2, 0x3d3d
    23aa:	3d3d                	.insn	2, 0x3d3d
    23ac:	3d3d                	.insn	2, 0x3d3d
    23ae:	3d3d                	.insn	2, 0x3d3d
    23b0:	3d3d                	.insn	2, 0x3d3d
    23b2:	3d3d                	.insn	2, 0x3d3d
    23b4:	3d3d                	.insn	2, 0x3d3d
    23b6:	3d3d                	.insn	2, 0x3d3d
    23b8:	3d3d                	.insn	2, 0x3d3d
    23ba:	000a                	.insn	2, 0x000a

000023bc <VGA_CTRL>:
    23bc:	0100                	.insn	2, 0x0100
    23be:	0400                	.insn	2, 0x0400

000023c0 <VGA>:
    23c0:	0000                	.insn	2, 0x
    23c2:	0800                	.insn	2, 0x0800

000023c4 <ball_size>:
    23c4:	0005                	.insn	2, 0x0005
	...

000023c8 <paddle_height>:
    23c8:	001e                	.insn	2, 0x001e
	...

000023cc <ball_y>:
    23cc:	0078                	.insn	2, 0x0078
	...

000023d0 <ball_x>:
    23d0:	00a0                	.insn	2, 0x00a0
	...

000023d4 <player2_y>:
    23d4:	0078                	.insn	2, 0x0078
	...

000023d8 <player1_y>:
    23d8:	0078                	.insn	2, 0x0078
	...

Disassembly of section .srodata.cst4:

00002414 <.srodata.cst4>:
    2414:	0a3d                	.insn	2, 0x0a3d
    2416:	24dd3f77          	.insn	4, 0x24dd3f77
    241a:	3e86                	.insn	2, 0x3e86
    241c:	ed91                	.insn	2, 0xed91
    241e:	3f5c                	.insn	2, 0x3f5c
    2420:	3f018937          	lui	s2,0x3f018
    2424:	fdf4                	.insn	2, 0xfdf4
    2426:	3f34                	.insn	2, 0x3f34
    2428:	3efef9db          	.insn	4, 0x3efef9db
    242c:	f3b6                	.insn	2, 0xf3b6
    242e:	3f5d                	.insn	2, 0x3f5d
    2430:	3e841893          	.insn	4, 0x3e841893
    2434:	3f774bc7          	.insn	4, 0x3f774bc7

Disassembly of section .rodata.str1.4:

00002438 <.rodata.str1.4>:
    2438:	5b0a                	.insn	2, 0x5b0a
    243a:	5845                	.insn	2, 0x5845
    243c:	54504543          	.insn	4, 0x54504543
    2440:	4f49                	.insn	2, 0x4f49
    2442:	5d4e                	.insn	2, 0x5d4e
    2444:	4920                	.insn	2, 0x4920
    2446:	736e                	.insn	2, 0x736e
    2448:	7274                	.insn	2, 0x7274
    244a:	6375                	.insn	2, 0x6375
    244c:	6974                	.insn	2, 0x6974
    244e:	61206e6f          	jal	t3,8a60 <__global_pointer+0x5ea4>
    2452:	6464                	.insn	2, 0x6464
    2454:	6572                	.insn	2, 0x6572
    2456:	6d207373          	csrrci	t1,0x6d2,0
    245a:	7369                	.insn	2, 0x7369
    245c:	6c61                	.insn	2, 0x6c61
    245e:	6769                	.insn	2, 0x6769
    2460:	6d6e                	.insn	2, 0x6d6e
    2462:	6e65                	.insn	2, 0x6e65
    2464:	2e74                	.insn	2, 0x2e74
    2466:	0020                	.insn	2, 0x0020
    2468:	5b0a                	.insn	2, 0x5b0a
    246a:	5845                	.insn	2, 0x5845
    246c:	54504543          	.insn	4, 0x54504543
    2470:	4f49                	.insn	2, 0x4f49
    2472:	5d4e                	.insn	2, 0x5d4e
    2474:	4920                	.insn	2, 0x4920
    2476:	6c6c                	.insn	2, 0x6c6c
    2478:	6765                	.insn	2, 0x6765
    247a:	6c61                	.insn	2, 0x6c61
    247c:	6920                	.insn	2, 0x6920
    247e:	736e                	.insn	2, 0x736e
    2480:	7274                	.insn	2, 0x7274
    2482:	6375                	.insn	2, 0x6375
    2484:	6974                	.insn	2, 0x6974
    2486:	202e6e6f          	jal	t3,e8688 <__global_pointer+0xe5acc>
    248a:	0000                	.insn	2, 0x
    248c:	5b0a                	.insn	2, 0x5b0a
    248e:	5845                	.insn	2, 0x5845
    2490:	54504543          	.insn	4, 0x54504543
    2494:	4f49                	.insn	2, 0x4f49
    2496:	5d4e                	.insn	2, 0x5d4e
    2498:	5520                	.insn	2, 0x5520
    249a:	6b6e                	.insn	2, 0x6b6e
    249c:	6f6e                	.insn	2, 0x6f6e
    249e:	65206e77          	.insn	4, 0x65206e77
    24a2:	7272                	.insn	2, 0x7272
    24a4:	202e726f          	jal	tp,e96a6 <__global_pointer+0xe6aea>
    24a8:	0000                	.insn	2, 0x
    24aa:	0000                	.insn	2, 0x
    24ac:	7845                	.insn	2, 0x7845
    24ae:	74706563          	bltu	zero,t2,2bf8 <__global_pointer+0x3c>
    24b2:	6f69                	.insn	2, 0x6f69
    24b4:	206e                	.insn	2, 0x206e
    24b6:	6441                	.insn	2, 0x6441
    24b8:	7264                	.insn	2, 0x7264
    24ba:	7365                	.insn	2, 0x7365
    24bc:	00203a73          	csrrc	s4,frm,zero

Disassembly of section .comment:

00000000 <.comment>:
   0:	3a434347          	.insn	4, 0x3a434347
   4:	2820                	.insn	2, 0x2820
   6:	2029                	.insn	2, 0x2029
   8:	3331                	.insn	2, 0x3331
   a:	322e                	.insn	2, 0x322e
   c:	302e                	.insn	2, 0x302e
	...

Disassembly of section .riscv.attributes:

00000000 <.riscv.attributes>:
   0:	3641                	.insn	2, 0x3641
   2:	0000                	.insn	2, 0x
   4:	7200                	.insn	2, 0x7200
   6:	7369                	.insn	2, 0x7369
   8:	01007663          	bgeu	zero,a6,14 <_isr_routine+0xc>
   c:	002c                	.insn	2, 0x002c
   e:	0000                	.insn	2, 0x
  10:	1004                	.insn	2, 0x1004
  12:	7205                	.insn	2, 0x7205
  14:	3376                	.insn	2, 0x3376
  16:	6932                	.insn	2, 0x6932
  18:	7032                	.insn	2, 0x7032
  1a:	5f31                	.insn	2, 0x5f31
  1c:	326d                	.insn	2, 0x326d
  1e:	3070                	.insn	2, 0x3070
  20:	7a5f 6369 7273      	.insn	6, 0x727363697a5f
  26:	7032                	.insn	2, 0x7032
  28:	5f30                	.insn	2, 0x5f30
  2a:	6d7a                	.insn	2, 0x6d7a
  2c:	756d                	.insn	2, 0x756d
  2e:	316c                	.insn	2, 0x316c
  30:	3070                	.insn	2, 0x3070
  32:	0800                	.insn	2, 0x0800
  34:	0a01                	.insn	2, 0x0a01
  36:	Address 0x36 is out of bounds.

